
bin/PhotoLab:     file format elf64-x86-64


Disassembly of section .init:

0000000000400998 <_init>:
  400998:	48 83 ec 08          	sub    $0x8,%rsp
  40099c:	48 8b 05 55 16 21 00 	mov    0x211655(%rip),%rax        # 611ff8 <__gmon_start__>
  4009a3:	48 85 c0             	test   %rax,%rax
  4009a6:	74 05                	je     4009ad <_init+0x15>
  4009a8:	e8 33 01 00 00       	callq  400ae0 <__gmon_start__@plt>
  4009ad:	48 83 c4 08          	add    $0x8,%rsp
  4009b1:	c3                   	retq   

Disassembly of section .plt:

00000000004009c0 <.plt>:
  4009c0:	ff 35 42 16 21 00    	pushq  0x211642(%rip)        # 612008 <_GLOBAL_OFFSET_TABLE_+0x8>
  4009c6:	ff 25 44 16 21 00    	jmpq   *0x211644(%rip)        # 612010 <_GLOBAL_OFFSET_TABLE_+0x10>
  4009cc:	0f 1f 40 00          	nopl   0x0(%rax)

00000000004009d0 <free@plt>:
  4009d0:	ff 25 42 16 21 00    	jmpq   *0x211642(%rip)        # 612018 <free@GLIBC_2.2.5>
  4009d6:	68 00 00 00 00       	pushq  $0x0
  4009db:	e9 e0 ff ff ff       	jmpq   4009c0 <.plt>

00000000004009e0 <strcpy@plt>:
  4009e0:	ff 25 3a 16 21 00    	jmpq   *0x21163a(%rip)        # 612020 <strcpy@GLIBC_2.2.5>
  4009e6:	68 01 00 00 00       	pushq  $0x1
  4009eb:	e9 d0 ff ff ff       	jmpq   4009c0 <.plt>

00000000004009f0 <__isoc99_fscanf@plt>:
  4009f0:	ff 25 32 16 21 00    	jmpq   *0x211632(%rip)        # 612028 <__isoc99_fscanf@GLIBC_2.7>
  4009f6:	68 02 00 00 00       	pushq  $0x2
  4009fb:	e9 c0 ff ff ff       	jmpq   4009c0 <.plt>

0000000000400a00 <GOMP_parallel_start@plt>:
  400a00:	ff 25 2a 16 21 00    	jmpq   *0x21162a(%rip)        # 612030 <GOMP_parallel_start@GOMP_1.0>
  400a06:	68 03 00 00 00       	pushq  $0x3
  400a0b:	e9 b0 ff ff ff       	jmpq   4009c0 <.plt>

0000000000400a10 <puts@plt>:
  400a10:	ff 25 22 16 21 00    	jmpq   *0x211622(%rip)        # 612038 <puts@GLIBC_2.2.5>
  400a16:	68 04 00 00 00       	pushq  $0x4
  400a1b:	e9 a0 ff ff ff       	jmpq   4009c0 <.plt>

0000000000400a20 <ferror@plt>:
  400a20:	ff 25 1a 16 21 00    	jmpq   *0x21161a(%rip)        # 612040 <ferror@GLIBC_2.2.5>
  400a26:	68 05 00 00 00       	pushq  $0x5
  400a2b:	e9 90 ff ff ff       	jmpq   4009c0 <.plt>

0000000000400a30 <fclose@plt>:
  400a30:	ff 25 12 16 21 00    	jmpq   *0x211612(%rip)        # 612048 <fclose@GLIBC_2.2.5>
  400a36:	68 06 00 00 00       	pushq  $0x6
  400a3b:	e9 80 ff ff ff       	jmpq   4009c0 <.plt>

0000000000400a40 <GOMP_parallel_end@plt>:
  400a40:	ff 25 0a 16 21 00    	jmpq   *0x21160a(%rip)        # 612050 <GOMP_parallel_end@GOMP_1.0>
  400a46:	68 07 00 00 00       	pushq  $0x7
  400a4b:	e9 70 ff ff ff       	jmpq   4009c0 <.plt>

0000000000400a50 <omp_get_thread_num@plt>:
  400a50:	ff 25 02 16 21 00    	jmpq   *0x211602(%rip)        # 612058 <omp_get_thread_num@OMP_1.0>
  400a56:	68 08 00 00 00       	pushq  $0x8
  400a5b:	e9 60 ff ff ff       	jmpq   4009c0 <.plt>

0000000000400a60 <printf@plt>:
  400a60:	ff 25 fa 15 21 00    	jmpq   *0x2115fa(%rip)        # 612060 <printf@GLIBC_2.2.5>
  400a66:	68 09 00 00 00       	pushq  $0x9
  400a6b:	e9 50 ff ff ff       	jmpq   4009c0 <.plt>

0000000000400a70 <__assert_fail@plt>:
  400a70:	ff 25 f2 15 21 00    	jmpq   *0x2115f2(%rip)        # 612068 <__assert_fail@GLIBC_2.2.5>
  400a76:	68 0a 00 00 00       	pushq  $0xa
  400a7b:	e9 40 ff ff ff       	jmpq   4009c0 <.plt>

0000000000400a80 <fgetc@plt>:
  400a80:	ff 25 ea 15 21 00    	jmpq   *0x2115ea(%rip)        # 612070 <fgetc@GLIBC_2.2.5>
  400a86:	68 0b 00 00 00       	pushq  $0xb
  400a8b:	e9 30 ff ff ff       	jmpq   4009c0 <.plt>

0000000000400a90 <cos@plt>:
  400a90:	ff 25 e2 15 21 00    	jmpq   *0x2115e2(%rip)        # 612078 <cos@GLIBC_2.2.5>
  400a96:	68 0c 00 00 00       	pushq  $0xc
  400a9b:	e9 20 ff ff ff       	jmpq   4009c0 <.plt>

0000000000400aa0 <fputc@plt>:
  400aa0:	ff 25 da 15 21 00    	jmpq   *0x2115da(%rip)        # 612080 <fputc@GLIBC_2.2.5>
  400aa6:	68 0d 00 00 00       	pushq  $0xd
  400aab:	e9 10 ff ff ff       	jmpq   4009c0 <.plt>

0000000000400ab0 <__libc_start_main@plt>:
  400ab0:	ff 25 d2 15 21 00    	jmpq   *0x2115d2(%rip)        # 612088 <__libc_start_main@GLIBC_2.2.5>
  400ab6:	68 0e 00 00 00       	pushq  $0xe
  400abb:	e9 00 ff ff ff       	jmpq   4009c0 <.plt>

0000000000400ac0 <omp_get_num_threads@plt>:
  400ac0:	ff 25 ca 15 21 00    	jmpq   *0x2115ca(%rip)        # 612090 <omp_get_num_threads@OMP_1.0>
  400ac6:	68 0f 00 00 00       	pushq  $0xf
  400acb:	e9 f0 fe ff ff       	jmpq   4009c0 <.plt>

0000000000400ad0 <fprintf@plt>:
  400ad0:	ff 25 c2 15 21 00    	jmpq   *0x2115c2(%rip)        # 612098 <fprintf@GLIBC_2.2.5>
  400ad6:	68 10 00 00 00       	pushq  $0x10
  400adb:	e9 e0 fe ff ff       	jmpq   4009c0 <.plt>

0000000000400ae0 <__gmon_start__@plt>:
  400ae0:	ff 25 ba 15 21 00    	jmpq   *0x2115ba(%rip)        # 6120a0 <__gmon_start__>
  400ae6:	68 11 00 00 00       	pushq  $0x11
  400aeb:	e9 d0 fe ff ff       	jmpq   4009c0 <.plt>

0000000000400af0 <malloc@plt>:
  400af0:	ff 25 b2 15 21 00    	jmpq   *0x2115b2(%rip)        # 6120a8 <malloc@GLIBC_2.2.5>
  400af6:	68 12 00 00 00       	pushq  $0x12
  400afb:	e9 c0 fe ff ff       	jmpq   4009c0 <.plt>

0000000000400b00 <fopen@plt>:
  400b00:	ff 25 aa 15 21 00    	jmpq   *0x2115aa(%rip)        # 6120b0 <fopen@GLIBC_2.2.5>
  400b06:	68 13 00 00 00       	pushq  $0x13
  400b0b:	e9 b0 fe ff ff       	jmpq   4009c0 <.plt>

0000000000400b10 <perror@plt>:
  400b10:	ff 25 a2 15 21 00    	jmpq   *0x2115a2(%rip)        # 6120b8 <perror@GLIBC_2.2.5>
  400b16:	68 14 00 00 00       	pushq  $0x14
  400b1b:	e9 a0 fe ff ff       	jmpq   4009c0 <.plt>

0000000000400b20 <sin@plt>:
  400b20:	ff 25 9a 15 21 00    	jmpq   *0x21159a(%rip)        # 6120c0 <sin@GLIBC_2.2.5>
  400b26:	68 15 00 00 00       	pushq  $0x15
  400b2b:	e9 90 fe ff ff       	jmpq   4009c0 <.plt>

0000000000400b30 <__isoc99_scanf@plt>:
  400b30:	ff 25 92 15 21 00    	jmpq   *0x211592(%rip)        # 6120c8 <__isoc99_scanf@GLIBC_2.7>
  400b36:	68 16 00 00 00       	pushq  $0x16
  400b3b:	e9 80 fe ff ff       	jmpq   4009c0 <.plt>

0000000000400b40 <strcat@plt>:
  400b40:	ff 25 8a 15 21 00    	jmpq   *0x21158a(%rip)        # 6120d0 <strcat@GLIBC_2.2.5>
  400b46:	68 17 00 00 00       	pushq  $0x17
  400b4b:	e9 70 fe ff ff       	jmpq   4009c0 <.plt>

0000000000400b50 <fwrite@plt>:
  400b50:	ff 25 82 15 21 00    	jmpq   *0x211582(%rip)        # 6120d8 <fwrite@GLIBC_2.2.5>
  400b56:	68 18 00 00 00       	pushq  $0x18
  400b5b:	e9 60 fe ff ff       	jmpq   4009c0 <.plt>

Disassembly of section .text:

0000000000400b60 <_start>:
  400b60:	31 ed                	xor    %ebp,%ebp
  400b62:	49 89 d1             	mov    %rdx,%r9
  400b65:	5e                   	pop    %rsi
  400b66:	48 89 e2             	mov    %rsp,%rdx
  400b69:	48 83 e4 f0          	and    $0xfffffffffffffff0,%rsp
  400b6d:	50                   	push   %rax
  400b6e:	54                   	push   %rsp
  400b6f:	49 c7 c0 00 07 41 00 	mov    $0x410700,%r8
  400b76:	48 c7 c1 90 06 41 00 	mov    $0x410690,%rcx
  400b7d:	48 c7 c7 68 0c 40 00 	mov    $0x400c68,%rdi
  400b84:	e8 27 ff ff ff       	callq  400ab0 <__libc_start_main@plt>
  400b89:	f4                   	hlt    
  400b8a:	66 0f 1f 44 00 00    	nopw   0x0(%rax,%rax,1)

0000000000400b90 <deregister_tm_clones>:
  400b90:	b8 ef 20 61 00       	mov    $0x6120ef,%eax
  400b95:	55                   	push   %rbp
  400b96:	48 2d e8 20 61 00    	sub    $0x6120e8,%rax
  400b9c:	48 83 f8 0e          	cmp    $0xe,%rax
  400ba0:	48 89 e5             	mov    %rsp,%rbp
  400ba3:	77 02                	ja     400ba7 <deregister_tm_clones+0x17>
  400ba5:	5d                   	pop    %rbp
  400ba6:	c3                   	retq   
  400ba7:	b8 00 00 00 00       	mov    $0x0,%eax
  400bac:	48 85 c0             	test   %rax,%rax
  400baf:	74 f4                	je     400ba5 <deregister_tm_clones+0x15>
  400bb1:	5d                   	pop    %rbp
  400bb2:	bf e8 20 61 00       	mov    $0x6120e8,%edi
  400bb7:	ff e0                	jmpq   *%rax
  400bb9:	0f 1f 80 00 00 00 00 	nopl   0x0(%rax)

0000000000400bc0 <register_tm_clones>:
  400bc0:	b8 e8 20 61 00       	mov    $0x6120e8,%eax
  400bc5:	55                   	push   %rbp
  400bc6:	48 2d e8 20 61 00    	sub    $0x6120e8,%rax
  400bcc:	48 c1 f8 03          	sar    $0x3,%rax
  400bd0:	48 89 e5             	mov    %rsp,%rbp
  400bd3:	48 89 c2             	mov    %rax,%rdx
  400bd6:	48 c1 ea 3f          	shr    $0x3f,%rdx
  400bda:	48 01 d0             	add    %rdx,%rax
  400bdd:	48 d1 f8             	sar    %rax
  400be0:	75 02                	jne    400be4 <register_tm_clones+0x24>
  400be2:	5d                   	pop    %rbp
  400be3:	c3                   	retq   
  400be4:	ba 00 00 00 00       	mov    $0x0,%edx
  400be9:	48 85 d2             	test   %rdx,%rdx
  400bec:	74 f4                	je     400be2 <register_tm_clones+0x22>
  400bee:	5d                   	pop    %rbp
  400bef:	48 89 c6             	mov    %rax,%rsi
  400bf2:	bf e8 20 61 00       	mov    $0x6120e8,%edi
  400bf7:	ff e2                	jmpq   *%rdx
  400bf9:	0f 1f 80 00 00 00 00 	nopl   0x0(%rax)

0000000000400c00 <__do_global_dtors_aux>:
  400c00:	80 3d e1 14 21 00 00 	cmpb   $0x0,0x2114e1(%rip)        # 6120e8 <__TMC_END__>
  400c07:	75 11                	jne    400c1a <__do_global_dtors_aux+0x1a>
  400c09:	55                   	push   %rbp
  400c0a:	48 89 e5             	mov    %rsp,%rbp
  400c0d:	e8 7e ff ff ff       	callq  400b90 <deregister_tm_clones>
  400c12:	5d                   	pop    %rbp
  400c13:	c6 05 ce 14 21 00 01 	movb   $0x1,0x2114ce(%rip)        # 6120e8 <__TMC_END__>
  400c1a:	f3 c3                	repz retq 
  400c1c:	0f 1f 40 00          	nopl   0x0(%rax)

0000000000400c20 <frame_dummy>:
  400c20:	48 83 3d c8 11 21 00 	cmpq   $0x0,0x2111c8(%rip)        # 611df0 <__JCR_END__>
  400c27:	00 
  400c28:	74 1e                	je     400c48 <frame_dummy+0x28>
  400c2a:	b8 00 00 00 00       	mov    $0x0,%eax
  400c2f:	48 85 c0             	test   %rax,%rax
  400c32:	74 14                	je     400c48 <frame_dummy+0x28>
  400c34:	55                   	push   %rbp
  400c35:	bf f0 1d 61 00       	mov    $0x611df0,%edi
  400c3a:	48 89 e5             	mov    %rsp,%rbp
  400c3d:	ff d0                	callq  *%rax
  400c3f:	5d                   	pop    %rbp
  400c40:	e9 7b ff ff ff       	jmpq   400bc0 <register_tm_clones>
  400c45:	0f 1f 00             	nopl   (%rax)
  400c48:	e9 73 ff ff ff       	jmpq   400bc0 <register_tm_clones>

0000000000400c4d <rdtsc>:
  400c4d:	55                   	push   %rbp
  400c4e:	48 89 e5             	mov    %rsp,%rbp
  400c51:	0f 31                	rdtsc  
  400c53:	89 45 fc             	mov    %eax,-0x4(%rbp)
  400c56:	89 55 f8             	mov    %edx,-0x8(%rbp)
  400c59:	8b 45 fc             	mov    -0x4(%rbp),%eax
  400c5c:	8b 55 f8             	mov    -0x8(%rbp),%edx
  400c5f:	48 c1 e2 20          	shl    $0x20,%rdx
  400c63:	48 09 d0             	or     %rdx,%rax
  400c66:	5d                   	pop    %rbp
  400c67:	c3                   	retq   

0000000000400c68 <main>:
  400c68:	55                   	push   %rbp
  400c69:	48 89 e5             	mov    %rsp,%rbp
  400c6c:	48 81 ec a0 00 00 00 	sub    $0xa0,%rsp
  400c73:	c7 45 fc 00 00 00 00 	movl   $0x0,-0x4(%rbp)
  400c7a:	48 c7 45 f0 00 00 00 	movq   $0x0,-0x10(%rbp)
  400c81:	00 
  400c82:	b8 00 00 00 00       	mov    $0x0,%eax
  400c87:	e8 7d 05 00 00       	callq  401209 <PrintMenu>
  400c8c:	bf 30 07 41 00       	mov    $0x410730,%edi
  400c91:	b8 00 00 00 00       	mov    $0x0,%eax
  400c96:	e8 c5 fd ff ff       	callq  400a60 <printf@plt>
  400c9b:	48 8d 45 ec          	lea    -0x14(%rbp),%rax
  400c9f:	48 89 c6             	mov    %rax,%rsi
  400ca2:	bf 4a 07 41 00       	mov    $0x41074a,%edi
  400ca7:	b8 00 00 00 00       	mov    $0x0,%eax
  400cac:	e8 7f fe ff ff       	callq  400b30 <__isoc99_scanf@plt>
  400cb1:	e9 24 05 00 00       	jmpq   4011da <main+0x572>
  400cb6:	8b 45 ec             	mov    -0x14(%rbp),%eax
  400cb9:	83 f8 01             	cmp    $0x1,%eax
  400cbc:	75 7b                	jne    400d39 <main+0xd1>
  400cbe:	83 7d fc 01          	cmpl   $0x1,-0x4(%rbp)
  400cc2:	75 13                	jne    400cd7 <main+0x6f>
  400cc4:	48 8b 45 f0          	mov    -0x10(%rbp),%rax
  400cc8:	48 89 c7             	mov    %rax,%rdi
  400ccb:	e8 92 10 00 00       	callq  401d62 <DeleteImage>
  400cd0:	c7 45 fc 00 00 00 00 	movl   $0x0,-0x4(%rbp)
  400cd7:	bf 50 07 41 00       	mov    $0x410750,%edi
  400cdc:	b8 00 00 00 00       	mov    $0x0,%eax
  400ce1:	e8 7a fd ff ff       	callq  400a60 <printf@plt>
  400ce6:	48 8d 45 90          	lea    -0x70(%rbp),%rax
  400cea:	48 89 c6             	mov    %rax,%rsi
  400ced:	bf 75 07 41 00       	mov    $0x410775,%edi
  400cf2:	b8 00 00 00 00       	mov    $0x0,%eax
  400cf7:	e8 34 fe ff ff       	callq  400b30 <__isoc99_scanf@plt>
  400cfc:	48 8d 45 90          	lea    -0x70(%rbp),%rax
  400d00:	48 89 c7             	mov    %rax,%rdi
  400d03:	e8 01 06 00 00       	callq  401309 <LoadImage>
  400d08:	48 89 45 f0          	mov    %rax,-0x10(%rbp)
  400d0c:	48 83 7d f0 00       	cmpq   $0x0,-0x10(%rbp)
  400d11:	0f 84 94 04 00 00    	je     4011ab <main+0x543>
  400d17:	c7 45 fc 01 00 00 00 	movl   $0x1,-0x4(%rbp)
  400d1e:	48 8d 45 90          	lea    -0x70(%rbp),%rax
  400d22:	48 89 c6             	mov    %rax,%rsi
  400d25:	bf 78 07 41 00       	mov    $0x410778,%edi
  400d2a:	b8 00 00 00 00       	mov    $0x0,%eax
  400d2f:	e8 2c fd ff ff       	callq  400a60 <printf@plt>
  400d34:	e9 72 04 00 00       	jmpq   4011ab <main+0x543>
  400d39:	8b 45 ec             	mov    -0x14(%rbp),%eax
  400d3c:	83 f8 01             	cmp    $0x1,%eax
  400d3f:	0f 8e 5c 04 00 00    	jle    4011a1 <main+0x539>
  400d45:	8b 45 ec             	mov    -0x14(%rbp),%eax
  400d48:	83 f8 08             	cmp    $0x8,%eax
  400d4b:	0f 8f 50 04 00 00    	jg     4011a1 <main+0x539>
  400d51:	48 83 7d f0 00       	cmpq   $0x0,-0x10(%rbp)
  400d56:	75 0f                	jne    400d67 <main+0xff>
  400d58:	bf 97 07 41 00       	mov    $0x410797,%edi
  400d5d:	e8 ae fc ff ff       	callq  400a10 <puts@plt>
  400d62:	e9 38 04 00 00       	jmpq   40119f <main+0x537>
  400d67:	8b 45 ec             	mov    -0x14(%rbp),%eax
  400d6a:	83 f8 08             	cmp    $0x8,%eax
  400d6d:	0f 87 2b 04 00 00    	ja     40119e <main+0x536>
  400d73:	89 c0                	mov    %eax,%eax
  400d75:	48 8b 04 c5 30 0b 41 	mov    0x410b30(,%rax,8),%rax
  400d7c:	00 
  400d7d:	ff e0                	jmpq   *%rax
  400d7f:	bf b0 07 41 00       	mov    $0x4107b0,%edi
  400d84:	b8 00 00 00 00       	mov    $0x0,%eax
  400d89:	e8 d2 fc ff ff       	callq  400a60 <printf@plt>
  400d8e:	48 8d 45 90          	lea    -0x70(%rbp),%rax
  400d92:	48 89 c6             	mov    %rax,%rsi
  400d95:	bf 75 07 41 00       	mov    $0x410775,%edi
  400d9a:	b8 00 00 00 00       	mov    $0x0,%eax
  400d9f:	e8 8c fd ff ff       	callq  400b30 <__isoc99_scanf@plt>
  400da4:	48 8b 55 f0          	mov    -0x10(%rbp),%rdx
  400da8:	48 8d 45 90          	lea    -0x70(%rbp),%rax
  400dac:	48 89 d6             	mov    %rdx,%rsi
  400daf:	48 89 c7             	mov    %rax,%rdi
  400db2:	e8 42 08 00 00       	callq  4015f9 <SaveImage>
  400db7:	48 8d 45 90          	lea    -0x70(%rbp),%rax
  400dbb:	48 89 c6             	mov    %rax,%rsi
  400dbe:	bf d5 07 41 00       	mov    $0x4107d5,%edi
  400dc3:	b8 00 00 00 00       	mov    $0x0,%eax
  400dc8:	e8 93 fc ff ff       	callq  400a60 <printf@plt>
  400dcd:	e9 cd 03 00 00       	jmpq   40119f <main+0x537>
  400dd2:	e8 76 fe ff ff       	callq  400c4d <rdtsc>
  400dd7:	48 89 05 6a 13 21 00 	mov    %rax,0x21136a(%rip)        # 612148 <t0>
  400dde:	48 8b 45 f0          	mov    -0x10(%rbp),%rax
  400de2:	be 03 00 00 00       	mov    $0x3,%esi
  400de7:	48 89 c7             	mov    %rax,%rdi
  400dea:	e8 30 19 00 00       	callq  40271f <MotionBlur>
  400def:	48 89 45 f0          	mov    %rax,-0x10(%rbp)
  400df3:	e8 55 fe ff ff       	callq  400c4d <rdtsc>
  400df8:	48 89 05 f9 12 21 00 	mov    %rax,0x2112f9(%rip)        # 6120f8 <t1>
  400dff:	bf f8 07 41 00       	mov    $0x4107f8,%edi
  400e04:	e8 07 fc ff ff       	callq  400a10 <puts@plt>
  400e09:	48 8b 15 e8 12 21 00 	mov    0x2112e8(%rip),%rdx        # 6120f8 <t1>
  400e10:	48 8b 05 31 13 21 00 	mov    0x211331(%rip),%rax        # 612148 <t0>
  400e17:	48 29 c2             	sub    %rax,%rdx
  400e1a:	48 89 d0             	mov    %rdx,%rax
  400e1d:	48 89 c6             	mov    %rax,%rsi
  400e20:	bf 20 08 41 00       	mov    $0x410820,%edi
  400e25:	b8 00 00 00 00       	mov    $0x0,%eax
  400e2a:	e8 31 fc ff ff       	callq  400a60 <printf@plt>
  400e2f:	e9 6b 03 00 00       	jmpq   40119f <main+0x537>
  400e34:	e8 14 fe ff ff       	callq  400c4d <rdtsc>
  400e39:	48 89 05 f0 12 21 00 	mov    %rax,0x2112f0(%rip)        # 612130 <t4>
  400e40:	48 8b 45 f0          	mov    -0x10(%rbp),%rax
  400e44:	48 89 c7             	mov    %rax,%rdi
  400e47:	e8 38 1b 00 00       	callq  402984 <Edge>
  400e4c:	48 89 45 f0          	mov    %rax,-0x10(%rbp)
  400e50:	e8 f8 fd ff ff       	callq  400c4d <rdtsc>
  400e55:	48 89 05 ac 12 21 00 	mov    %rax,0x2112ac(%rip)        # 612108 <t5>
  400e5c:	bf 53 08 41 00       	mov    $0x410853,%edi
  400e61:	e8 aa fb ff ff       	callq  400a10 <puts@plt>
  400e66:	48 8b 15 9b 12 21 00 	mov    0x21129b(%rip),%rdx        # 612108 <t5>
  400e6d:	48 8b 05 bc 12 21 00 	mov    0x2112bc(%rip),%rax        # 612130 <t4>
  400e74:	48 29 c2             	sub    %rax,%rdx
  400e77:	48 89 d0             	mov    %rdx,%rax
  400e7a:	48 89 c6             	mov    %rax,%rsi
  400e7d:	bf 70 08 41 00       	mov    $0x410870,%edi
  400e82:	b8 00 00 00 00       	mov    $0x0,%eax
  400e87:	e8 d4 fb ff ff       	callq  400a60 <printf@plt>
  400e8c:	e9 0e 03 00 00       	jmpq   40119f <main+0x537>
  400e91:	bf 9d 08 41 00       	mov    $0x41089d,%edi
  400e96:	b8 00 00 00 00       	mov    $0x0,%eax
  400e9b:	e8 c0 fb ff ff       	callq  400a60 <printf@plt>
  400ea0:	48 8d 45 88          	lea    -0x78(%rbp),%rax
  400ea4:	48 89 c6             	mov    %rax,%rsi
  400ea7:	bf ba 08 41 00       	mov    $0x4108ba,%edi
  400eac:	b8 00 00 00 00       	mov    $0x0,%eax
  400eb1:	e8 7a fc ff ff       	callq  400b30 <__isoc99_scanf@plt>
  400eb6:	bf be 08 41 00       	mov    $0x4108be,%edi
  400ebb:	b8 00 00 00 00       	mov    $0x0,%eax
  400ec0:	e8 9b fb ff ff       	callq  400a60 <printf@plt>
  400ec5:	48 8d 45 80          	lea    -0x80(%rbp),%rax
  400ec9:	48 89 c6             	mov    %rax,%rsi
  400ecc:	bf ba 08 41 00       	mov    $0x4108ba,%edi
  400ed1:	b8 00 00 00 00       	mov    $0x0,%eax
  400ed6:	e8 55 fc ff ff       	callq  400b30 <__isoc99_scanf@plt>
  400edb:	bf e0 08 41 00       	mov    $0x4108e0,%edi
  400ee0:	b8 00 00 00 00       	mov    $0x0,%eax
  400ee5:	e8 76 fb ff ff       	callq  400a60 <printf@plt>
  400eea:	48 8d 85 7c ff ff ff 	lea    -0x84(%rbp),%rax
  400ef1:	48 89 c6             	mov    %rax,%rsi
  400ef4:	bf 4a 07 41 00       	mov    $0x41074a,%edi
  400ef9:	b8 00 00 00 00       	mov    $0x0,%eax
  400efe:	e8 2d fc ff ff       	callq  400b30 <__isoc99_scanf@plt>
  400f03:	bf 18 09 41 00       	mov    $0x410918,%edi
  400f08:	b8 00 00 00 00       	mov    $0x0,%eax
  400f0d:	e8 4e fb ff ff       	callq  400a60 <printf@plt>
  400f12:	48 8d 85 78 ff ff ff 	lea    -0x88(%rbp),%rax
  400f19:	48 89 c6             	mov    %rax,%rsi
  400f1c:	bf 4a 07 41 00       	mov    $0x41074a,%edi
  400f21:	b8 00 00 00 00       	mov    $0x0,%eax
  400f26:	e8 05 fc ff ff       	callq  400b30 <__isoc99_scanf@plt>
  400f2b:	e8 1d fd ff ff       	callq  400c4d <rdtsc>
  400f30:	48 89 05 09 12 21 00 	mov    %rax,0x211209(%rip)        # 612140 <t8>
  400f37:	8b 95 78 ff ff ff    	mov    -0x88(%rbp),%edx
  400f3d:	8b b5 7c ff ff ff    	mov    -0x84(%rbp),%esi
  400f43:	48 8b 4d 80          	mov    -0x80(%rbp),%rcx
  400f47:	48 8b 45 88          	mov    -0x78(%rbp),%rax
  400f4b:	48 8b 7d f0          	mov    -0x10(%rbp),%rdi
  400f4f:	48 89 8d 68 ff ff ff 	mov    %rcx,-0x98(%rbp)
  400f56:	c5 fb 10 8d 68 ff ff 	vmovsd -0x98(%rbp),%xmm1
  400f5d:	ff 
  400f5e:	48 89 85 68 ff ff ff 	mov    %rax,-0x98(%rbp)
  400f65:	c5 fb 10 85 68 ff ff 	vmovsd -0x98(%rbp),%xmm0
  400f6c:	ff 
  400f6d:	e8 c3 0e 00 00       	callq  401e35 <Rotate>
  400f72:	48 89 45 f0          	mov    %rax,-0x10(%rbp)
  400f76:	e8 d2 fc ff ff       	callq  400c4d <rdtsc>
  400f7b:	48 89 05 96 11 21 00 	mov    %rax,0x211196(%rip)        # 612118 <t9>
  400f82:	bf 4f 09 41 00       	mov    $0x41094f,%edi
  400f87:	e8 84 fa ff ff       	callq  400a10 <puts@plt>
  400f8c:	48 8b 15 85 11 21 00 	mov    0x211185(%rip),%rdx        # 612118 <t9>
  400f93:	48 8b 05 a6 11 21 00 	mov    0x2111a6(%rip),%rax        # 612140 <t8>
  400f9a:	48 29 c2             	sub    %rax,%rdx
  400f9d:	48 89 d0             	mov    %rdx,%rax
  400fa0:	48 89 c6             	mov    %rax,%rsi
  400fa3:	bf 70 09 41 00       	mov    $0x410970,%edi
  400fa8:	b8 00 00 00 00       	mov    $0x0,%eax
  400fad:	e8 ae fa ff ff       	callq  400a60 <printf@plt>
  400fb2:	e9 e8 01 00 00       	jmpq   40119f <main+0x537>
  400fb7:	bf a0 09 41 00       	mov    $0x4109a0,%edi
  400fbc:	e8 4f fa ff ff       	callq  400a10 <puts@plt>
  400fc1:	e8 87 fc ff ff       	callq  400c4d <rdtsc>
  400fc6:	48 89 05 5b 11 21 00 	mov    %rax,0x21115b(%rip)        # 612128 <t2>
  400fcd:	48 8b 45 f0          	mov    -0x10(%rbp),%rax
  400fd1:	48 89 c7             	mov    %rax,%rdi
  400fd4:	e8 93 33 00 00       	callq  40436c <MotionBlur_Turbo>
  400fd9:	48 89 45 f0          	mov    %rax,-0x10(%rbp)
  400fdd:	e8 6b fc ff ff       	callq  400c4d <rdtsc>
  400fe2:	48 89 05 17 11 21 00 	mov    %rax,0x211117(%rip)        # 612100 <t3>
  400fe9:	bf d0 09 41 00       	mov    $0x4109d0,%edi
  400fee:	e8 1d fa ff ff       	callq  400a10 <puts@plt>
  400ff3:	48 8b 15 06 11 21 00 	mov    0x211106(%rip),%rdx        # 612100 <t3>
  400ffa:	48 8b 05 27 11 21 00 	mov    0x211127(%rip),%rax        # 612128 <t2>
  401001:	48 29 c2             	sub    %rax,%rdx
  401004:	48 89 d0             	mov    %rdx,%rax
  401007:	48 89 c6             	mov    %rax,%rsi
  40100a:	bf 00 0a 41 00       	mov    $0x410a00,%edi
  40100f:	b8 00 00 00 00       	mov    $0x0,%eax
  401014:	e8 47 fa ff ff       	callq  400a60 <printf@plt>
  401019:	e9 81 01 00 00       	jmpq   40119f <main+0x537>
  40101e:	e8 2a fc ff ff       	callq  400c4d <rdtsc>
  401023:	48 89 05 0e 11 21 00 	mov    %rax,0x21110e(%rip)        # 612138 <t6>
  40102a:	48 8b 45 f0          	mov    -0x10(%rbp),%rax
  40102e:	48 89 c7             	mov    %rax,%rdi
  401031:	e8 53 2b 00 00       	callq  403b89 <Edge_Turbo>
  401036:	48 89 45 f0          	mov    %rax,-0x10(%rbp)
  40103a:	e8 0e fc ff ff       	callq  400c4d <rdtsc>
  40103f:	48 89 05 ca 10 21 00 	mov    %rax,0x2110ca(%rip)        # 612110 <t7>
  401046:	bf 40 0a 41 00       	mov    $0x410a40,%edi
  40104b:	e8 c0 f9 ff ff       	callq  400a10 <puts@plt>
  401050:	48 8b 15 b9 10 21 00 	mov    0x2110b9(%rip),%rdx        # 612110 <t7>
  401057:	48 8b 05 da 10 21 00 	mov    0x2110da(%rip),%rax        # 612138 <t6>
  40105e:	48 29 c2             	sub    %rax,%rdx
  401061:	48 89 d0             	mov    %rdx,%rax
  401064:	48 89 c6             	mov    %rax,%rsi
  401067:	bf 70 0a 41 00       	mov    $0x410a70,%edi
  40106c:	b8 00 00 00 00       	mov    $0x0,%eax
  401071:	e8 ea f9 ff ff       	callq  400a60 <printf@plt>
  401076:	e9 24 01 00 00       	jmpq   40119f <main+0x537>
  40107b:	bf 9d 08 41 00       	mov    $0x41089d,%edi
  401080:	b8 00 00 00 00       	mov    $0x0,%eax
  401085:	e8 d6 f9 ff ff       	callq  400a60 <printf@plt>
  40108a:	48 8d 45 88          	lea    -0x78(%rbp),%rax
  40108e:	48 89 c6             	mov    %rax,%rsi
  401091:	bf ba 08 41 00       	mov    $0x4108ba,%edi
  401096:	b8 00 00 00 00       	mov    $0x0,%eax
  40109b:	e8 90 fa ff ff       	callq  400b30 <__isoc99_scanf@plt>
  4010a0:	bf be 08 41 00       	mov    $0x4108be,%edi
  4010a5:	b8 00 00 00 00       	mov    $0x0,%eax
  4010aa:	e8 b1 f9 ff ff       	callq  400a60 <printf@plt>
  4010af:	48 8d 45 80          	lea    -0x80(%rbp),%rax
  4010b3:	48 89 c6             	mov    %rax,%rsi
  4010b6:	bf ba 08 41 00       	mov    $0x4108ba,%edi
  4010bb:	b8 00 00 00 00       	mov    $0x0,%eax
  4010c0:	e8 6b fa ff ff       	callq  400b30 <__isoc99_scanf@plt>
  4010c5:	bf e0 08 41 00       	mov    $0x4108e0,%edi
  4010ca:	b8 00 00 00 00       	mov    $0x0,%eax
  4010cf:	e8 8c f9 ff ff       	callq  400a60 <printf@plt>
  4010d4:	48 8d 85 7c ff ff ff 	lea    -0x84(%rbp),%rax
  4010db:	48 89 c6             	mov    %rax,%rsi
  4010de:	bf 4a 07 41 00       	mov    $0x41074a,%edi
  4010e3:	b8 00 00 00 00       	mov    $0x0,%eax
  4010e8:	e8 43 fa ff ff       	callq  400b30 <__isoc99_scanf@plt>
  4010ed:	bf 18 09 41 00       	mov    $0x410918,%edi
  4010f2:	b8 00 00 00 00       	mov    $0x0,%eax
  4010f7:	e8 64 f9 ff ff       	callq  400a60 <printf@plt>
  4010fc:	48 8d 85 78 ff ff ff 	lea    -0x88(%rbp),%rax
  401103:	48 89 c6             	mov    %rax,%rsi
  401106:	bf 4a 07 41 00       	mov    $0x41074a,%edi
  40110b:	b8 00 00 00 00       	mov    $0x0,%eax
  401110:	e8 1b fa ff ff       	callq  400b30 <__isoc99_scanf@plt>
  401115:	e8 33 fb ff ff       	callq  400c4d <rdtsc>
  40111a:	48 89 05 ff 0f 21 00 	mov    %rax,0x210fff(%rip)        # 612120 <t10>
  401121:	8b 95 78 ff ff ff    	mov    -0x88(%rbp),%edx
  401127:	8b b5 7c ff ff ff    	mov    -0x84(%rbp),%esi
  40112d:	48 8b 4d 80          	mov    -0x80(%rbp),%rcx
  401131:	48 8b 45 88          	mov    -0x78(%rbp),%rax
  401135:	48 8b 7d f0          	mov    -0x10(%rbp),%rdi
  401139:	48 89 8d 68 ff ff ff 	mov    %rcx,-0x98(%rbp)
  401140:	c5 fb 10 8d 68 ff ff 	vmovsd -0x98(%rbp),%xmm1
  401147:	ff 
  401148:	48 89 85 68 ff ff ff 	mov    %rax,-0x98(%rbp)
  40114f:	c5 fb 10 85 68 ff ff 	vmovsd -0x98(%rbp),%xmm0
  401156:	ff 
  401157:	e8 ce 21 00 00       	callq  40332a <Rotate_Turbo>
  40115c:	48 89 45 f0          	mov    %rax,-0x10(%rbp)
  401160:	e8 e8 fa ff ff       	callq  400c4d <rdtsc>
  401165:	48 89 05 84 0f 21 00 	mov    %rax,0x210f84(%rip)        # 6120f0 <t11>
  40116c:	bf a8 0a 41 00       	mov    $0x410aa8,%edi
  401171:	e8 9a f8 ff ff       	callq  400a10 <puts@plt>
  401176:	48 8b 15 73 0f 21 00 	mov    0x210f73(%rip),%rdx        # 6120f0 <t11>
  40117d:	48 8b 05 9c 0f 21 00 	mov    0x210f9c(%rip),%rax        # 612120 <t10>
  401184:	48 29 c2             	sub    %rax,%rdx
  401187:	48 89 d0             	mov    %rdx,%rax
  40118a:	48 89 c6             	mov    %rax,%rsi
  40118d:	bf d0 0a 41 00       	mov    $0x410ad0,%edi
  401192:	b8 00 00 00 00       	mov    $0x0,%eax
  401197:	e8 c4 f8 ff ff       	callq  400a60 <printf@plt>
  40119c:	eb 01                	jmp    40119f <main+0x537>
  40119e:	90                   	nop
  40119f:	eb 0a                	jmp    4011ab <main+0x543>
  4011a1:	bf 05 0b 41 00       	mov    $0x410b05,%edi
  4011a6:	e8 65 f8 ff ff       	callq  400a10 <puts@plt>
  4011ab:	b8 00 00 00 00       	mov    $0x0,%eax
  4011b0:	e8 54 00 00 00       	callq  401209 <PrintMenu>
  4011b5:	bf 30 07 41 00       	mov    $0x410730,%edi
  4011ba:	b8 00 00 00 00       	mov    $0x0,%eax
  4011bf:	e8 9c f8 ff ff       	callq  400a60 <printf@plt>
  4011c4:	48 8d 45 ec          	lea    -0x14(%rbp),%rax
  4011c8:	48 89 c6             	mov    %rax,%rsi
  4011cb:	bf 4a 07 41 00       	mov    $0x41074a,%edi
  4011d0:	b8 00 00 00 00       	mov    $0x0,%eax
  4011d5:	e8 56 f9 ff ff       	callq  400b30 <__isoc99_scanf@plt>
  4011da:	8b 45 ec             	mov    -0x14(%rbp),%eax
  4011dd:	83 f8 14             	cmp    $0x14,%eax
  4011e0:	0f 85 d0 fa ff ff    	jne    400cb6 <main+0x4e>
  4011e6:	83 7d fc 01          	cmpl   $0x1,-0x4(%rbp)
  4011ea:	75 0c                	jne    4011f8 <main+0x590>
  4011ec:	48 8b 45 f0          	mov    -0x10(%rbp),%rax
  4011f0:	48 89 c7             	mov    %rax,%rdi
  4011f3:	e8 6a 0b 00 00       	callq  401d62 <DeleteImage>
  4011f8:	bf 18 0b 41 00       	mov    $0x410b18,%edi
  4011fd:	e8 0e f8 ff ff       	callq  400a10 <puts@plt>
  401202:	b8 00 00 00 00       	mov    $0x0,%eax
  401207:	c9                   	leaveq 
  401208:	c3                   	retq   

0000000000401209 <PrintMenu>:
  401209:	55                   	push   %rbp
  40120a:	48 89 e5             	mov    %rsp,%rbp
  40120d:	bf 78 0b 41 00       	mov    $0x410b78,%edi
  401212:	e8 f9 f7 ff ff       	callq  400a10 <puts@plt>
  401217:	bf b8 0b 41 00       	mov    $0x410bb8,%edi
  40121c:	e8 ef f7 ff ff       	callq  400a10 <puts@plt>
  401221:	bf 78 0b 41 00       	mov    $0x410b78,%edi
  401226:	e8 e5 f7 ff ff       	callq  400a10 <puts@plt>
  40122b:	bf f8 0b 41 00       	mov    $0x410bf8,%edi
  401230:	e8 db f7 ff ff       	callq  400a10 <puts@plt>
  401235:	bf 30 0c 41 00       	mov    $0x410c30,%edi
  40123a:	e8 d1 f7 ff ff       	callq  400a10 <puts@plt>
  40123f:	bf 70 0c 41 00       	mov    $0x410c70,%edi
  401244:	e8 c7 f7 ff ff       	callq  400a10 <puts@plt>
  401249:	bf b0 0c 41 00       	mov    $0x410cb0,%edi
  40124e:	e8 bd f7 ff ff       	callq  400a10 <puts@plt>
  401253:	bf f0 0c 41 00       	mov    $0x410cf0,%edi
  401258:	e8 b3 f7 ff ff       	callq  400a10 <puts@plt>
  40125d:	bf 30 0d 41 00       	mov    $0x410d30,%edi
  401262:	e8 a9 f7 ff ff       	callq  400a10 <puts@plt>
  401267:	bf 70 0d 41 00       	mov    $0x410d70,%edi
  40126c:	e8 9f f7 ff ff       	callq  400a10 <puts@plt>
  401271:	bf b0 0d 41 00       	mov    $0x410db0,%edi
  401276:	e8 95 f7 ff ff       	callq  400a10 <puts@plt>
  40127b:	bf f0 0d 41 00       	mov    $0x410df0,%edi
  401280:	e8 8b f7 ff ff       	callq  400a10 <puts@plt>
  401285:	bf 30 0e 41 00       	mov    $0x410e30,%edi
  40128a:	e8 81 f7 ff ff       	callq  400a10 <puts@plt>
  40128f:	bf 78 0b 41 00       	mov    $0x410b78,%edi
  401294:	e8 77 f7 ff ff       	callq  400a10 <puts@plt>
  401299:	bf 70 0e 41 00       	mov    $0x410e70,%edi
  40129e:	e8 6d f7 ff ff       	callq  400a10 <puts@plt>
  4012a3:	bf a8 0e 41 00       	mov    $0x410ea8,%edi
  4012a8:	e8 63 f7 ff ff       	callq  400a10 <puts@plt>
  4012ad:	bf e0 0e 41 00       	mov    $0x410ee0,%edi
  4012b2:	e8 59 f7 ff ff       	callq  400a10 <puts@plt>
  4012b7:	bf 20 0f 41 00       	mov    $0x410f20,%edi
  4012bc:	e8 4f f7 ff ff       	callq  400a10 <puts@plt>
  4012c1:	bf 58 0f 41 00       	mov    $0x410f58,%edi
  4012c6:	e8 45 f7 ff ff       	callq  400a10 <puts@plt>
  4012cb:	bf 90 0f 41 00       	mov    $0x410f90,%edi
  4012d0:	e8 3b f7 ff ff       	callq  400a10 <puts@plt>
  4012d5:	bf c8 0f 41 00       	mov    $0x410fc8,%edi
  4012da:	e8 31 f7 ff ff       	callq  400a10 <puts@plt>
  4012df:	bf 00 10 41 00       	mov    $0x411000,%edi
  4012e4:	e8 27 f7 ff ff       	callq  400a10 <puts@plt>
  4012e9:	bf 38 10 41 00       	mov    $0x411038,%edi
  4012ee:	e8 1d f7 ff ff       	callq  400a10 <puts@plt>
  4012f3:	bf 70 10 41 00       	mov    $0x411070,%edi
  4012f8:	e8 13 f7 ff ff       	callq  400a10 <puts@plt>
  4012fd:	bf 78 0b 41 00       	mov    $0x410b78,%edi
  401302:	e8 09 f7 ff ff       	callq  400a10 <puts@plt>
  401307:	5d                   	pop    %rbp
  401308:	c3                   	retq   

0000000000401309 <LoadImage>:
  401309:	55                   	push   %rbp
  40130a:	48 89 e5             	mov    %rsp,%rbp
  40130d:	53                   	push   %rbx
  40130e:	48 81 ec 98 01 00 00 	sub    $0x198,%rsp
  401315:	48 89 bd 68 fe ff ff 	mov    %rdi,-0x198(%rbp)
  40131c:	c7 85 60 ff ff ff 2e 	movl   $0x6d70702e,-0xa0(%rbp)
  401323:	70 70 6d 
  401326:	c6 85 64 ff ff ff 00 	movb   $0x0,-0x9c(%rbp)
  40132d:	48 8b 95 68 fe ff ff 	mov    -0x198(%rbp),%rdx
  401334:	48 8d 85 10 ff ff ff 	lea    -0xf0(%rbp),%rax
  40133b:	48 89 d6             	mov    %rdx,%rsi
  40133e:	48 89 c7             	mov    %rax,%rdi
  401341:	e8 9a f6 ff ff       	callq  4009e0 <strcpy@plt>
  401346:	48 8d 95 60 ff ff ff 	lea    -0xa0(%rbp),%rdx
  40134d:	48 8d 85 10 ff ff ff 	lea    -0xf0(%rbp),%rax
  401354:	48 89 d6             	mov    %rdx,%rsi
  401357:	48 89 c7             	mov    %rax,%rdi
  40135a:	e8 e1 f7 ff ff       	callq  400b40 <strcat@plt>
  40135f:	48 8d 85 70 fe ff ff 	lea    -0x190(%rbp),%rax
  401366:	48 bb 2e 2e 2f 70 69 	movabs $0x2f6369702f2e2e,%rbx
  40136d:	63 2f 00 
  401370:	48 89 18             	mov    %rbx,(%rax)
  401373:	48 8d 95 10 ff ff ff 	lea    -0xf0(%rbp),%rdx
  40137a:	48 8d 85 70 fe ff ff 	lea    -0x190(%rbp),%rax
  401381:	48 89 d6             	mov    %rdx,%rsi
  401384:	48 89 c7             	mov    %rax,%rdi
  401387:	e8 b4 f7 ff ff       	callq  400b40 <strcat@plt>
  40138c:	48 8d 85 70 fe ff ff 	lea    -0x190(%rbp),%rax
  401393:	be a8 10 41 00       	mov    $0x4110a8,%esi
  401398:	48 89 c7             	mov    %rax,%rdi
  40139b:	e8 60 f7 ff ff       	callq  400b00 <fopen@plt>
  4013a0:	48 89 45 e0          	mov    %rax,-0x20(%rbp)
  4013a4:	48 83 7d e0 00       	cmpq   $0x0,-0x20(%rbp)
  4013a9:	75 0a                	jne    4013b5 <LoadImage+0xac>
  4013ab:	b8 00 00 00 00       	mov    $0x0,%eax
  4013b0:	e9 3a 02 00 00       	jmpq   4015ef <LoadImage+0x2e6>
  4013b5:	48 8d 55 80          	lea    -0x80(%rbp),%rdx
  4013b9:	48 8b 45 e0          	mov    -0x20(%rbp),%rax
  4013bd:	be aa 10 41 00       	mov    $0x4110aa,%esi
  4013c2:	48 89 c7             	mov    %rax,%rdi
  4013c5:	b8 00 00 00 00       	mov    $0x0,%eax
  4013ca:	e8 21 f6 ff ff       	callq  4009f0 <__isoc99_fscanf@plt>
  4013cf:	0f b6 45 80          	movzbl -0x80(%rbp),%eax
  4013d3:	3c 50                	cmp    $0x50,%al
  4013d5:	75 10                	jne    4013e7 <LoadImage+0xde>
  4013d7:	0f b6 45 81          	movzbl -0x7f(%rbp),%eax
  4013db:	3c 36                	cmp    $0x36,%al
  4013dd:	75 08                	jne    4013e7 <LoadImage+0xde>
  4013df:	0f b6 45 82          	movzbl -0x7e(%rbp),%eax
  4013e3:	84 c0                	test   %al,%al
  4013e5:	74 16                	je     4013fd <LoadImage+0xf4>
  4013e7:	48 8b 45 e0          	mov    -0x20(%rbp),%rax
  4013eb:	48 89 c7             	mov    %rax,%rdi
  4013ee:	e8 3d f6 ff ff       	callq  400a30 <fclose@plt>
  4013f3:	b8 00 00 00 00       	mov    $0x0,%eax
  4013f8:	e9 f2 01 00 00       	jmpq   4015ef <LoadImage+0x2e6>
  4013fd:	48 8d 95 7c ff ff ff 	lea    -0x84(%rbp),%rdx
  401404:	48 8b 45 e0          	mov    -0x20(%rbp),%rax
  401408:	be af 10 41 00       	mov    $0x4110af,%esi
  40140d:	48 89 c7             	mov    %rax,%rdi
  401410:	b8 00 00 00 00       	mov    $0x0,%eax
  401415:	e8 d6 f5 ff ff       	callq  4009f0 <__isoc99_fscanf@plt>
  40141a:	8b 85 7c ff ff ff    	mov    -0x84(%rbp),%eax
  401420:	85 c0                	test   %eax,%eax
  401422:	7f 16                	jg     40143a <LoadImage+0x131>
  401424:	48 8b 45 e0          	mov    -0x20(%rbp),%rax
  401428:	48 89 c7             	mov    %rax,%rdi
  40142b:	e8 00 f6 ff ff       	callq  400a30 <fclose@plt>
  401430:	b8 00 00 00 00       	mov    $0x0,%eax
  401435:	e9 b5 01 00 00       	jmpq   4015ef <LoadImage+0x2e6>
  40143a:	48 8d 95 78 ff ff ff 	lea    -0x88(%rbp),%rdx
  401441:	48 8b 45 e0          	mov    -0x20(%rbp),%rax
  401445:	be af 10 41 00       	mov    $0x4110af,%esi
  40144a:	48 89 c7             	mov    %rax,%rdi
  40144d:	b8 00 00 00 00       	mov    $0x0,%eax
  401452:	e8 99 f5 ff ff       	callq  4009f0 <__isoc99_fscanf@plt>
  401457:	8b 85 78 ff ff ff    	mov    -0x88(%rbp),%eax
  40145d:	85 c0                	test   %eax,%eax
  40145f:	7f 16                	jg     401477 <LoadImage+0x16e>
  401461:	48 8b 45 e0          	mov    -0x20(%rbp),%rax
  401465:	48 89 c7             	mov    %rax,%rdi
  401468:	e8 c3 f5 ff ff       	callq  400a30 <fclose@plt>
  40146d:	b8 00 00 00 00       	mov    $0x0,%eax
  401472:	e9 78 01 00 00       	jmpq   4015ef <LoadImage+0x2e6>
  401477:	48 8d 95 74 ff ff ff 	lea    -0x8c(%rbp),%rdx
  40147e:	48 8b 45 e0          	mov    -0x20(%rbp),%rax
  401482:	be af 10 41 00       	mov    $0x4110af,%esi
  401487:	48 89 c7             	mov    %rax,%rdi
  40148a:	b8 00 00 00 00       	mov    $0x0,%eax
  40148f:	e8 5c f5 ff ff       	callq  4009f0 <__isoc99_fscanf@plt>
  401494:	8b 85 74 ff ff ff    	mov    -0x8c(%rbp),%eax
  40149a:	3d ff 00 00 00       	cmp    $0xff,%eax
  40149f:	74 16                	je     4014b7 <LoadImage+0x1ae>
  4014a1:	48 8b 45 e0          	mov    -0x20(%rbp),%rax
  4014a5:	48 89 c7             	mov    %rax,%rdi
  4014a8:	e8 83 f5 ff ff       	callq  400a30 <fclose@plt>
  4014ad:	b8 00 00 00 00       	mov    $0x0,%eax
  4014b2:	e9 38 01 00 00       	jmpq   4015ef <LoadImage+0x2e6>
  4014b7:	48 8b 45 e0          	mov    -0x20(%rbp),%rax
  4014bb:	48 89 c7             	mov    %rax,%rdi
  4014be:	e8 bd f5 ff ff       	callq  400a80 <fgetc@plt>
  4014c3:	83 f8 0a             	cmp    $0xa,%eax
  4014c6:	74 16                	je     4014de <LoadImage+0x1d5>
  4014c8:	48 8b 45 e0          	mov    -0x20(%rbp),%rax
  4014cc:	48 89 c7             	mov    %rax,%rdi
  4014cf:	e8 5c f5 ff ff       	callq  400a30 <fclose@plt>
  4014d4:	b8 00 00 00 00       	mov    $0x0,%eax
  4014d9:	e9 11 01 00 00       	jmpq   4015ef <LoadImage+0x2e6>
  4014de:	8b 85 78 ff ff ff    	mov    -0x88(%rbp),%eax
  4014e4:	89 c2                	mov    %eax,%edx
  4014e6:	8b 85 7c ff ff ff    	mov    -0x84(%rbp),%eax
  4014ec:	89 d6                	mov    %edx,%esi
  4014ee:	89 c7                	mov    %eax,%edi
  4014f0:	e8 5a 07 00 00       	callq  401c4f <CreateImage>
  4014f5:	48 89 45 d8          	mov    %rax,-0x28(%rbp)
  4014f9:	48 83 7d d8 00       	cmpq   $0x0,-0x28(%rbp)
  4014fe:	75 16                	jne    401516 <LoadImage+0x20d>
  401500:	48 8b 45 e0          	mov    -0x20(%rbp),%rax
  401504:	48 89 c7             	mov    %rax,%rdi
  401507:	e8 24 f5 ff ff       	callq  400a30 <fclose@plt>
  40150c:	b8 00 00 00 00       	mov    $0x0,%eax
  401511:	e9 d9 00 00 00       	jmpq   4015ef <LoadImage+0x2e6>
  401516:	c7 45 e8 00 00 00 00 	movl   $0x0,-0x18(%rbp)
  40151d:	e9 85 00 00 00       	jmpq   4015a7 <LoadImage+0x29e>
  401522:	c7 45 ec 00 00 00 00 	movl   $0x0,-0x14(%rbp)
  401529:	eb 67                	jmp    401592 <LoadImage+0x289>
  40152b:	48 8b 45 e0          	mov    -0x20(%rbp),%rax
  40152f:	48 89 c7             	mov    %rax,%rdi
  401532:	e8 49 f5 ff ff       	callq  400a80 <fgetc@plt>
  401537:	0f b6 c8             	movzbl %al,%ecx
  40153a:	8b 55 e8             	mov    -0x18(%rbp),%edx
  40153d:	8b 75 ec             	mov    -0x14(%rbp),%esi
  401540:	48 8b 45 d8          	mov    -0x28(%rbp),%rax
  401544:	48 89 c7             	mov    %rax,%rdi
  401547:	e8 f3 04 00 00       	callq  401a3f <SetPixelR>
  40154c:	48 8b 45 e0          	mov    -0x20(%rbp),%rax
  401550:	48 89 c7             	mov    %rax,%rdi
  401553:	e8 28 f5 ff ff       	callq  400a80 <fgetc@plt>
  401558:	0f b6 c8             	movzbl %al,%ecx
  40155b:	8b 55 e8             	mov    -0x18(%rbp),%edx
  40155e:	8b 75 ec             	mov    -0x14(%rbp),%esi
  401561:	48 8b 45 d8          	mov    -0x28(%rbp),%rax
  401565:	48 89 c7             	mov    %rax,%rdi
  401568:	e8 82 05 00 00       	callq  401aef <SetPixelG>
  40156d:	48 8b 45 e0          	mov    -0x20(%rbp),%rax
  401571:	48 89 c7             	mov    %rax,%rdi
  401574:	e8 07 f5 ff ff       	callq  400a80 <fgetc@plt>
  401579:	0f b6 c8             	movzbl %al,%ecx
  40157c:	8b 55 e8             	mov    -0x18(%rbp),%edx
  40157f:	8b 75 ec             	mov    -0x14(%rbp),%esi
  401582:	48 8b 45 d8          	mov    -0x28(%rbp),%rax
  401586:	48 89 c7             	mov    %rax,%rdi
  401589:	e8 11 06 00 00       	callq  401b9f <SetPixelB>
  40158e:	83 45 ec 01          	addl   $0x1,-0x14(%rbp)
  401592:	48 8b 45 d8          	mov    -0x28(%rbp),%rax
  401596:	48 89 c7             	mov    %rax,%rdi
  401599:	e8 2e 08 00 00       	callq  401dcc <ImageWidth>
  40159e:	3b 45 ec             	cmp    -0x14(%rbp),%eax
  4015a1:	77 88                	ja     40152b <LoadImage+0x222>
  4015a3:	83 45 e8 01          	addl   $0x1,-0x18(%rbp)
  4015a7:	48 8b 45 d8          	mov    -0x28(%rbp),%rax
  4015ab:	48 89 c7             	mov    %rax,%rdi
  4015ae:	e8 4d 08 00 00       	callq  401e00 <ImageHeight>
  4015b3:	3b 45 e8             	cmp    -0x18(%rbp),%eax
  4015b6:	0f 87 66 ff ff ff    	ja     401522 <LoadImage+0x219>
  4015bc:	48 8b 45 e0          	mov    -0x20(%rbp),%rax
  4015c0:	48 89 c7             	mov    %rax,%rdi
  4015c3:	e8 58 f4 ff ff       	callq  400a20 <ferror@plt>
  4015c8:	85 c0                	test   %eax,%eax
  4015ca:	74 13                	je     4015df <LoadImage+0x2d6>
  4015cc:	48 8b 45 d8          	mov    -0x28(%rbp),%rax
  4015d0:	48 89 c7             	mov    %rax,%rdi
  4015d3:	e8 8a 07 00 00       	callq  401d62 <DeleteImage>
  4015d8:	b8 00 00 00 00       	mov    $0x0,%eax
  4015dd:	eb 10                	jmp    4015ef <LoadImage+0x2e6>
  4015df:	48 8b 45 e0          	mov    -0x20(%rbp),%rax
  4015e3:	48 89 c7             	mov    %rax,%rdi
  4015e6:	e8 45 f4 ff ff       	callq  400a30 <fclose@plt>
  4015eb:	48 8b 45 d8          	mov    -0x28(%rbp),%rax
  4015ef:	48 81 c4 98 01 00 00 	add    $0x198,%rsp
  4015f6:	5b                   	pop    %rbx
  4015f7:	5d                   	pop    %rbp
  4015f8:	c3                   	retq   

00000000004015f9 <SaveImage>:
  4015f9:	55                   	push   %rbp
  4015fa:	48 89 e5             	mov    %rsp,%rbp
  4015fd:	53                   	push   %rbx
  4015fe:	48 81 ec 78 01 00 00 	sub    $0x178,%rsp
  401605:	48 89 bd 88 fe ff ff 	mov    %rdi,-0x178(%rbp)
  40160c:	48 89 b5 80 fe ff ff 	mov    %rsi,-0x180(%rbp)
  401613:	48 83 bd 80 fe ff ff 	cmpq   $0x0,-0x180(%rbp)
  40161a:	00 
  40161b:	75 19                	jne    401636 <SaveImage+0x3d>
  40161d:	b9 00 11 41 00       	mov    $0x411100,%ecx
  401622:	ba 73 00 00 00       	mov    $0x73,%edx
  401627:	be b2 10 41 00       	mov    $0x4110b2,%esi
  40162c:	bf c0 10 41 00       	mov    $0x4110c0,%edi
  401631:	e8 3a f4 ff ff       	callq  400a70 <__assert_fail@plt>
  401636:	c7 45 d0 2e 70 70 6d 	movl   $0x6d70702e,-0x30(%rbp)
  40163d:	c6 45 d4 00          	movb   $0x0,-0x2c(%rbp)
  401641:	48 8b 85 80 fe ff ff 	mov    -0x180(%rbp),%rax
  401648:	48 89 c7             	mov    %rax,%rdi
  40164b:	e8 7c 07 00 00       	callq  401dcc <ImageWidth>
  401650:	89 45 e4             	mov    %eax,-0x1c(%rbp)
  401653:	48 8b 85 80 fe ff ff 	mov    -0x180(%rbp),%rax
  40165a:	48 89 c7             	mov    %rax,%rdi
  40165d:	e8 9e 07 00 00       	callq  401e00 <ImageHeight>
  401662:	89 45 e0             	mov    %eax,-0x20(%rbp)
  401665:	48 8b 95 88 fe ff ff 	mov    -0x178(%rbp),%rdx
  40166c:	48 8d 45 80          	lea    -0x80(%rbp),%rax
  401670:	48 89 d6             	mov    %rdx,%rsi
  401673:	48 89 c7             	mov    %rax,%rdi
  401676:	e8 65 f3 ff ff       	callq  4009e0 <strcpy@plt>
  40167b:	48 8b 95 88 fe ff ff 	mov    -0x178(%rbp),%rdx
  401682:	48 8d 85 30 ff ff ff 	lea    -0xd0(%rbp),%rax
  401689:	48 89 d6             	mov    %rdx,%rsi
  40168c:	48 89 c7             	mov    %rax,%rdi
  40168f:	e8 4c f3 ff ff       	callq  4009e0 <strcpy@plt>
  401694:	48 8d 55 d0          	lea    -0x30(%rbp),%rdx
  401698:	48 8d 85 30 ff ff ff 	lea    -0xd0(%rbp),%rax
  40169f:	48 89 d6             	mov    %rdx,%rsi
  4016a2:	48 89 c7             	mov    %rax,%rdi
  4016a5:	e8 96 f4 ff ff       	callq  400b40 <strcat@plt>
  4016aa:	48 8d 85 90 fe ff ff 	lea    -0x170(%rbp),%rax
  4016b1:	48 bb 2e 2e 2f 6f 75 	movabs $0x757074756f2f2e2e,%rbx
  4016b8:	74 70 75 
  4016bb:	48 89 18             	mov    %rbx,(%rax)
  4016be:	66 c7 40 08 74 2f    	movw   $0x2f74,0x8(%rax)
  4016c4:	c6 40 0a 00          	movb   $0x0,0xa(%rax)
  4016c8:	48 8d 95 30 ff ff ff 	lea    -0xd0(%rbp),%rdx
  4016cf:	48 8d 85 90 fe ff ff 	lea    -0x170(%rbp),%rax
  4016d6:	48 89 d6             	mov    %rdx,%rsi
  4016d9:	48 89 c7             	mov    %rax,%rdi
  4016dc:	e8 5f f4 ff ff       	callq  400b40 <strcat@plt>
  4016e1:	48 8d 85 90 fe ff ff 	lea    -0x170(%rbp),%rax
  4016e8:	be ee 10 41 00       	mov    $0x4110ee,%esi
  4016ed:	48 89 c7             	mov    %rax,%rdi
  4016f0:	e8 0b f4 ff ff       	callq  400b00 <fopen@plt>
  4016f5:	48 89 45 d8          	mov    %rax,-0x28(%rbp)
  4016f9:	48 83 7d d8 00       	cmpq   $0x0,-0x28(%rbp)
  4016fe:	75 0a                	jne    40170a <SaveImage+0x111>
  401700:	b8 01 00 00 00       	mov    $0x1,%eax
  401705:	e9 2a 01 00 00       	jmpq   401834 <SaveImage+0x23b>
  40170a:	48 8b 45 d8          	mov    -0x28(%rbp),%rax
  40170e:	48 89 c1             	mov    %rax,%rcx
  401711:	ba 03 00 00 00       	mov    $0x3,%edx
  401716:	be 01 00 00 00       	mov    $0x1,%esi
  40171b:	bf f0 10 41 00       	mov    $0x4110f0,%edi
  401720:	e8 2b f4 ff ff       	callq  400b50 <fwrite@plt>
  401725:	8b 4d e0             	mov    -0x20(%rbp),%ecx
  401728:	8b 55 e4             	mov    -0x1c(%rbp),%edx
  40172b:	48 8b 45 d8          	mov    -0x28(%rbp),%rax
  40172f:	be f4 10 41 00       	mov    $0x4110f4,%esi
  401734:	48 89 c7             	mov    %rax,%rdi
  401737:	b8 00 00 00 00       	mov    $0x0,%eax
  40173c:	e8 8f f3 ff ff       	callq  400ad0 <fprintf@plt>
  401741:	48 8b 45 d8          	mov    -0x28(%rbp),%rax
  401745:	48 89 c1             	mov    %rax,%rcx
  401748:	ba 04 00 00 00       	mov    $0x4,%edx
  40174d:	be 01 00 00 00       	mov    $0x1,%esi
  401752:	bf fb 10 41 00       	mov    $0x4110fb,%edi
  401757:	e8 f4 f3 ff ff       	callq  400b50 <fwrite@plt>
  40175c:	c7 45 e8 00 00 00 00 	movl   $0x0,-0x18(%rbp)
  401763:	e9 98 00 00 00       	jmpq   401800 <SaveImage+0x207>
  401768:	c7 45 ec 00 00 00 00 	movl   $0x0,-0x14(%rbp)
  40176f:	eb 7f                	jmp    4017f0 <SaveImage+0x1f7>
  401771:	8b 55 e8             	mov    -0x18(%rbp),%edx
  401774:	8b 4d ec             	mov    -0x14(%rbp),%ecx
  401777:	48 8b 85 80 fe ff ff 	mov    -0x180(%rbp),%rax
  40177e:	89 ce                	mov    %ecx,%esi
  401780:	48 89 c7             	mov    %rax,%rdi
  401783:	e8 b6 00 00 00       	callq  40183e <GetPixelR>
  401788:	c5 fb 2c c0          	vcvttsd2si %xmm0,%eax
  40178c:	48 8b 55 d8          	mov    -0x28(%rbp),%rdx
  401790:	48 89 d6             	mov    %rdx,%rsi
  401793:	89 c7                	mov    %eax,%edi
  401795:	e8 06 f3 ff ff       	callq  400aa0 <fputc@plt>
  40179a:	8b 55 e8             	mov    -0x18(%rbp),%edx
  40179d:	8b 4d ec             	mov    -0x14(%rbp),%ecx
  4017a0:	48 8b 85 80 fe ff ff 	mov    -0x180(%rbp),%rax
  4017a7:	89 ce                	mov    %ecx,%esi
  4017a9:	48 89 c7             	mov    %rax,%rdi
  4017ac:	e8 38 01 00 00       	callq  4018e9 <GetPixelG>
  4017b1:	c5 fb 2c c0          	vcvttsd2si %xmm0,%eax
  4017b5:	48 8b 55 d8          	mov    -0x28(%rbp),%rdx
  4017b9:	48 89 d6             	mov    %rdx,%rsi
  4017bc:	89 c7                	mov    %eax,%edi
  4017be:	e8 dd f2 ff ff       	callq  400aa0 <fputc@plt>
  4017c3:	8b 55 e8             	mov    -0x18(%rbp),%edx
  4017c6:	8b 4d ec             	mov    -0x14(%rbp),%ecx
  4017c9:	48 8b 85 80 fe ff ff 	mov    -0x180(%rbp),%rax
  4017d0:	89 ce                	mov    %ecx,%esi
  4017d2:	48 89 c7             	mov    %rax,%rdi
  4017d5:	e8 ba 01 00 00       	callq  401994 <GetPixelB>
  4017da:	c5 fb 2c c0          	vcvttsd2si %xmm0,%eax
  4017de:	48 8b 55 d8          	mov    -0x28(%rbp),%rdx
  4017e2:	48 89 d6             	mov    %rdx,%rsi
  4017e5:	89 c7                	mov    %eax,%edi
  4017e7:	e8 b4 f2 ff ff       	callq  400aa0 <fputc@plt>
  4017ec:	83 45 ec 01          	addl   $0x1,-0x14(%rbp)
  4017f0:	8b 45 ec             	mov    -0x14(%rbp),%eax
  4017f3:	3b 45 e4             	cmp    -0x1c(%rbp),%eax
  4017f6:	0f 82 75 ff ff ff    	jb     401771 <SaveImage+0x178>
  4017fc:	83 45 e8 01          	addl   $0x1,-0x18(%rbp)
  401800:	8b 45 e8             	mov    -0x18(%rbp),%eax
  401803:	3b 45 e0             	cmp    -0x20(%rbp),%eax
  401806:	0f 82 5c ff ff ff    	jb     401768 <SaveImage+0x16f>
  40180c:	48 8b 45 d8          	mov    -0x28(%rbp),%rax
  401810:	48 89 c7             	mov    %rax,%rdi
  401813:	e8 08 f2 ff ff       	callq  400a20 <ferror@plt>
  401818:	85 c0                	test   %eax,%eax
  40181a:	74 07                	je     401823 <SaveImage+0x22a>
  40181c:	b8 02 00 00 00       	mov    $0x2,%eax
  401821:	eb 11                	jmp    401834 <SaveImage+0x23b>
  401823:	48 8b 45 d8          	mov    -0x28(%rbp),%rax
  401827:	48 89 c7             	mov    %rax,%rdi
  40182a:	e8 01 f2 ff ff       	callq  400a30 <fclose@plt>
  40182f:	b8 00 00 00 00       	mov    $0x0,%eax
  401834:	48 81 c4 78 01 00 00 	add    $0x178,%rsp
  40183b:	5b                   	pop    %rbx
  40183c:	5d                   	pop    %rbp
  40183d:	c3                   	retq   

000000000040183e <GetPixelR>:
  40183e:	55                   	push   %rbp
  40183f:	48 89 e5             	mov    %rsp,%rbp
  401842:	48 83 ec 20          	sub    $0x20,%rsp
  401846:	48 89 7d f8          	mov    %rdi,-0x8(%rbp)
  40184a:	89 75 f4             	mov    %esi,-0xc(%rbp)
  40184d:	89 55 f0             	mov    %edx,-0x10(%rbp)
  401850:	48 83 7d f8 00       	cmpq   $0x0,-0x8(%rbp)
  401855:	75 19                	jne    401870 <GetPixelR+0x32>
  401857:	b9 49 11 41 00       	mov    $0x411149,%ecx
  40185c:	ba 11 00 00 00       	mov    $0x11,%edx
  401861:	be 0a 11 41 00       	mov    $0x41110a,%esi
  401866:	bf 16 11 41 00       	mov    $0x411116,%edi
  40186b:	e8 00 f2 ff ff       	callq  400a70 <__assert_fail@plt>
  401870:	48 8b 45 f8          	mov    -0x8(%rbp),%rax
  401874:	8b 00                	mov    (%rax),%eax
  401876:	3b 45 f4             	cmp    -0xc(%rbp),%eax
  401879:	77 19                	ja     401894 <GetPixelR+0x56>
  40187b:	b9 49 11 41 00       	mov    $0x411149,%ecx
  401880:	ba 13 00 00 00       	mov    $0x13,%edx
  401885:	be 0a 11 41 00       	mov    $0x41110a,%esi
  40188a:	bf 1c 11 41 00       	mov    $0x41111c,%edi
  40188f:	e8 dc f1 ff ff       	callq  400a70 <__assert_fail@plt>
  401894:	48 8b 45 f8          	mov    -0x8(%rbp),%rax
  401898:	8b 40 04             	mov    0x4(%rax),%eax
  40189b:	3b 45 f0             	cmp    -0x10(%rbp),%eax
  40189e:	77 19                	ja     4018b9 <GetPixelR+0x7b>
  4018a0:	b9 49 11 41 00       	mov    $0x411149,%ecx
  4018a5:	ba 14 00 00 00       	mov    $0x14,%edx
  4018aa:	be 0a 11 41 00       	mov    $0x41110a,%esi
  4018af:	bf 2b 11 41 00       	mov    $0x41112b,%edi
  4018b4:	e8 b7 f1 ff ff       	callq  400a70 <__assert_fail@plt>
  4018b9:	48 8b 45 f8          	mov    -0x8(%rbp),%rax
  4018bd:	48 8b 50 08          	mov    0x8(%rax),%rdx
  4018c1:	48 8b 45 f8          	mov    -0x8(%rbp),%rax
  4018c5:	8b 00                	mov    (%rax),%eax
  4018c7:	0f af 45 f0          	imul   -0x10(%rbp),%eax
  4018cb:	89 c1                	mov    %eax,%ecx
  4018cd:	8b 45 f4             	mov    -0xc(%rbp),%eax
  4018d0:	01 c8                	add    %ecx,%eax
  4018d2:	89 c0                	mov    %eax,%eax
  4018d4:	48 c1 e0 03          	shl    $0x3,%rax
  4018d8:	48 01 d0             	add    %rdx,%rax
  4018db:	48 8b 00             	mov    (%rax),%rax
  4018de:	48 89 45 e8          	mov    %rax,-0x18(%rbp)
  4018e2:	c5 fb 10 45 e8       	vmovsd -0x18(%rbp),%xmm0
  4018e7:	c9                   	leaveq 
  4018e8:	c3                   	retq   

00000000004018e9 <GetPixelG>:
  4018e9:	55                   	push   %rbp
  4018ea:	48 89 e5             	mov    %rsp,%rbp
  4018ed:	48 83 ec 20          	sub    $0x20,%rsp
  4018f1:	48 89 7d f8          	mov    %rdi,-0x8(%rbp)
  4018f5:	89 75 f4             	mov    %esi,-0xc(%rbp)
  4018f8:	89 55 f0             	mov    %edx,-0x10(%rbp)
  4018fb:	48 83 7d f8 00       	cmpq   $0x0,-0x8(%rbp)
  401900:	75 19                	jne    40191b <GetPixelG+0x32>
  401902:	b9 53 11 41 00       	mov    $0x411153,%ecx
  401907:	ba 1c 00 00 00       	mov    $0x1c,%edx
  40190c:	be 0a 11 41 00       	mov    $0x41110a,%esi
  401911:	bf 16 11 41 00       	mov    $0x411116,%edi
  401916:	e8 55 f1 ff ff       	callq  400a70 <__assert_fail@plt>
  40191b:	48 8b 45 f8          	mov    -0x8(%rbp),%rax
  40191f:	8b 00                	mov    (%rax),%eax
  401921:	3b 45 f4             	cmp    -0xc(%rbp),%eax
  401924:	77 19                	ja     40193f <GetPixelG+0x56>
  401926:	b9 53 11 41 00       	mov    $0x411153,%ecx
  40192b:	ba 1e 00 00 00       	mov    $0x1e,%edx
  401930:	be 0a 11 41 00       	mov    $0x41110a,%esi
  401935:	bf 1c 11 41 00       	mov    $0x41111c,%edi
  40193a:	e8 31 f1 ff ff       	callq  400a70 <__assert_fail@plt>
  40193f:	48 8b 45 f8          	mov    -0x8(%rbp),%rax
  401943:	8b 40 04             	mov    0x4(%rax),%eax
  401946:	3b 45 f0             	cmp    -0x10(%rbp),%eax
  401949:	77 19                	ja     401964 <GetPixelG+0x7b>
  40194b:	b9 53 11 41 00       	mov    $0x411153,%ecx
  401950:	ba 1f 00 00 00       	mov    $0x1f,%edx
  401955:	be 0a 11 41 00       	mov    $0x41110a,%esi
  40195a:	bf 2b 11 41 00       	mov    $0x41112b,%edi
  40195f:	e8 0c f1 ff ff       	callq  400a70 <__assert_fail@plt>
  401964:	48 8b 45 f8          	mov    -0x8(%rbp),%rax
  401968:	48 8b 50 10          	mov    0x10(%rax),%rdx
  40196c:	48 8b 45 f8          	mov    -0x8(%rbp),%rax
  401970:	8b 00                	mov    (%rax),%eax
  401972:	0f af 45 f0          	imul   -0x10(%rbp),%eax
  401976:	89 c1                	mov    %eax,%ecx
  401978:	8b 45 f4             	mov    -0xc(%rbp),%eax
  40197b:	01 c8                	add    %ecx,%eax
  40197d:	89 c0                	mov    %eax,%eax
  40197f:	48 c1 e0 03          	shl    $0x3,%rax
  401983:	48 01 d0             	add    %rdx,%rax
  401986:	48 8b 00             	mov    (%rax),%rax
  401989:	48 89 45 e8          	mov    %rax,-0x18(%rbp)
  40198d:	c5 fb 10 45 e8       	vmovsd -0x18(%rbp),%xmm0
  401992:	c9                   	leaveq 
  401993:	c3                   	retq   

0000000000401994 <GetPixelB>:
  401994:	55                   	push   %rbp
  401995:	48 89 e5             	mov    %rsp,%rbp
  401998:	48 83 ec 20          	sub    $0x20,%rsp
  40199c:	48 89 7d f8          	mov    %rdi,-0x8(%rbp)
  4019a0:	89 75 f4             	mov    %esi,-0xc(%rbp)
  4019a3:	89 55 f0             	mov    %edx,-0x10(%rbp)
  4019a6:	48 83 7d f8 00       	cmpq   $0x0,-0x8(%rbp)
  4019ab:	75 19                	jne    4019c6 <GetPixelB+0x32>
  4019ad:	b9 5d 11 41 00       	mov    $0x41115d,%ecx
  4019b2:	ba 27 00 00 00       	mov    $0x27,%edx
  4019b7:	be 0a 11 41 00       	mov    $0x41110a,%esi
  4019bc:	bf 16 11 41 00       	mov    $0x411116,%edi
  4019c1:	e8 aa f0 ff ff       	callq  400a70 <__assert_fail@plt>
  4019c6:	48 8b 45 f8          	mov    -0x8(%rbp),%rax
  4019ca:	8b 00                	mov    (%rax),%eax
  4019cc:	3b 45 f4             	cmp    -0xc(%rbp),%eax
  4019cf:	77 19                	ja     4019ea <GetPixelB+0x56>
  4019d1:	b9 5d 11 41 00       	mov    $0x41115d,%ecx
  4019d6:	ba 29 00 00 00       	mov    $0x29,%edx
  4019db:	be 0a 11 41 00       	mov    $0x41110a,%esi
  4019e0:	bf 1c 11 41 00       	mov    $0x41111c,%edi
  4019e5:	e8 86 f0 ff ff       	callq  400a70 <__assert_fail@plt>
  4019ea:	48 8b 45 f8          	mov    -0x8(%rbp),%rax
  4019ee:	8b 40 04             	mov    0x4(%rax),%eax
  4019f1:	3b 45 f0             	cmp    -0x10(%rbp),%eax
  4019f4:	77 19                	ja     401a0f <GetPixelB+0x7b>
  4019f6:	b9 5d 11 41 00       	mov    $0x41115d,%ecx
  4019fb:	ba 2a 00 00 00       	mov    $0x2a,%edx
  401a00:	be 0a 11 41 00       	mov    $0x41110a,%esi
  401a05:	bf 2b 11 41 00       	mov    $0x41112b,%edi
  401a0a:	e8 61 f0 ff ff       	callq  400a70 <__assert_fail@plt>
  401a0f:	48 8b 45 f8          	mov    -0x8(%rbp),%rax
  401a13:	48 8b 50 18          	mov    0x18(%rax),%rdx
  401a17:	48 8b 45 f8          	mov    -0x8(%rbp),%rax
  401a1b:	8b 00                	mov    (%rax),%eax
  401a1d:	0f af 45 f0          	imul   -0x10(%rbp),%eax
  401a21:	89 c1                	mov    %eax,%ecx
  401a23:	8b 45 f4             	mov    -0xc(%rbp),%eax
  401a26:	01 c8                	add    %ecx,%eax
  401a28:	89 c0                	mov    %eax,%eax
  401a2a:	48 c1 e0 03          	shl    $0x3,%rax
  401a2e:	48 01 d0             	add    %rdx,%rax
  401a31:	48 8b 00             	mov    (%rax),%rax
  401a34:	48 89 45 e8          	mov    %rax,-0x18(%rbp)
  401a38:	c5 fb 10 45 e8       	vmovsd -0x18(%rbp),%xmm0
  401a3d:	c9                   	leaveq 
  401a3e:	c3                   	retq   

0000000000401a3f <SetPixelR>:
  401a3f:	55                   	push   %rbp
  401a40:	48 89 e5             	mov    %rsp,%rbp
  401a43:	48 83 ec 20          	sub    $0x20,%rsp
  401a47:	48 89 7d f8          	mov    %rdi,-0x8(%rbp)
  401a4b:	89 75 f4             	mov    %esi,-0xc(%rbp)
  401a4e:	89 55 f0             	mov    %edx,-0x10(%rbp)
  401a51:	89 c8                	mov    %ecx,%eax
  401a53:	88 45 ec             	mov    %al,-0x14(%rbp)
  401a56:	48 83 7d f8 00       	cmpq   $0x0,-0x8(%rbp)
  401a5b:	75 19                	jne    401a76 <SetPixelR+0x37>
  401a5d:	b9 67 11 41 00       	mov    $0x411167,%ecx
  401a62:	ba 32 00 00 00       	mov    $0x32,%edx
  401a67:	be 0a 11 41 00       	mov    $0x41110a,%esi
  401a6c:	bf 16 11 41 00       	mov    $0x411116,%edi
  401a71:	e8 fa ef ff ff       	callq  400a70 <__assert_fail@plt>
  401a76:	48 8b 45 f8          	mov    -0x8(%rbp),%rax
  401a7a:	8b 00                	mov    (%rax),%eax
  401a7c:	3b 45 f4             	cmp    -0xc(%rbp),%eax
  401a7f:	77 19                	ja     401a9a <SetPixelR+0x5b>
  401a81:	b9 67 11 41 00       	mov    $0x411167,%ecx
  401a86:	ba 34 00 00 00       	mov    $0x34,%edx
  401a8b:	be 0a 11 41 00       	mov    $0x41110a,%esi
  401a90:	bf 1c 11 41 00       	mov    $0x41111c,%edi
  401a95:	e8 d6 ef ff ff       	callq  400a70 <__assert_fail@plt>
  401a9a:	48 8b 45 f8          	mov    -0x8(%rbp),%rax
  401a9e:	8b 40 04             	mov    0x4(%rax),%eax
  401aa1:	3b 45 f0             	cmp    -0x10(%rbp),%eax
  401aa4:	77 19                	ja     401abf <SetPixelR+0x80>
  401aa6:	b9 67 11 41 00       	mov    $0x411167,%ecx
  401aab:	ba 35 00 00 00       	mov    $0x35,%edx
  401ab0:	be 0a 11 41 00       	mov    $0x41110a,%esi
  401ab5:	bf 2b 11 41 00       	mov    $0x41112b,%edi
  401aba:	e8 b1 ef ff ff       	callq  400a70 <__assert_fail@plt>
  401abf:	48 8b 45 f8          	mov    -0x8(%rbp),%rax
  401ac3:	48 8b 50 08          	mov    0x8(%rax),%rdx
  401ac7:	48 8b 45 f8          	mov    -0x8(%rbp),%rax
  401acb:	8b 00                	mov    (%rax),%eax
  401acd:	0f af 45 f0          	imul   -0x10(%rbp),%eax
  401ad1:	89 c1                	mov    %eax,%ecx
  401ad3:	8b 45 f4             	mov    -0xc(%rbp),%eax
  401ad6:	01 c8                	add    %ecx,%eax
  401ad8:	89 c0                	mov    %eax,%eax
  401ada:	48 c1 e0 03          	shl    $0x3,%rax
  401ade:	48 01 c2             	add    %rax,%rdx
  401ae1:	0f b6 45 ec          	movzbl -0x14(%rbp),%eax
  401ae5:	c5 fb 2a c0          	vcvtsi2sd %eax,%xmm0,%xmm0
  401ae9:	c5 fb 11 02          	vmovsd %xmm0,(%rdx)
  401aed:	c9                   	leaveq 
  401aee:	c3                   	retq   

0000000000401aef <SetPixelG>:
  401aef:	55                   	push   %rbp
  401af0:	48 89 e5             	mov    %rsp,%rbp
  401af3:	48 83 ec 20          	sub    $0x20,%rsp
  401af7:	48 89 7d f8          	mov    %rdi,-0x8(%rbp)
  401afb:	89 75 f4             	mov    %esi,-0xc(%rbp)
  401afe:	89 55 f0             	mov    %edx,-0x10(%rbp)
  401b01:	89 c8                	mov    %ecx,%eax
  401b03:	88 45 ec             	mov    %al,-0x14(%rbp)
  401b06:	48 83 7d f8 00       	cmpq   $0x0,-0x8(%rbp)
  401b0b:	75 19                	jne    401b26 <SetPixelG+0x37>
  401b0d:	b9 71 11 41 00       	mov    $0x411171,%ecx
  401b12:	ba 3d 00 00 00       	mov    $0x3d,%edx
  401b17:	be 0a 11 41 00       	mov    $0x41110a,%esi
  401b1c:	bf 16 11 41 00       	mov    $0x411116,%edi
  401b21:	e8 4a ef ff ff       	callq  400a70 <__assert_fail@plt>
  401b26:	48 8b 45 f8          	mov    -0x8(%rbp),%rax
  401b2a:	8b 00                	mov    (%rax),%eax
  401b2c:	3b 45 f4             	cmp    -0xc(%rbp),%eax
  401b2f:	77 19                	ja     401b4a <SetPixelG+0x5b>
  401b31:	b9 71 11 41 00       	mov    $0x411171,%ecx
  401b36:	ba 3f 00 00 00       	mov    $0x3f,%edx
  401b3b:	be 0a 11 41 00       	mov    $0x41110a,%esi
  401b40:	bf 1c 11 41 00       	mov    $0x41111c,%edi
  401b45:	e8 26 ef ff ff       	callq  400a70 <__assert_fail@plt>
  401b4a:	48 8b 45 f8          	mov    -0x8(%rbp),%rax
  401b4e:	8b 40 04             	mov    0x4(%rax),%eax
  401b51:	3b 45 f0             	cmp    -0x10(%rbp),%eax
  401b54:	77 19                	ja     401b6f <SetPixelG+0x80>
  401b56:	b9 71 11 41 00       	mov    $0x411171,%ecx
  401b5b:	ba 40 00 00 00       	mov    $0x40,%edx
  401b60:	be 0a 11 41 00       	mov    $0x41110a,%esi
  401b65:	bf 2b 11 41 00       	mov    $0x41112b,%edi
  401b6a:	e8 01 ef ff ff       	callq  400a70 <__assert_fail@plt>
  401b6f:	48 8b 45 f8          	mov    -0x8(%rbp),%rax
  401b73:	48 8b 50 10          	mov    0x10(%rax),%rdx
  401b77:	48 8b 45 f8          	mov    -0x8(%rbp),%rax
  401b7b:	8b 00                	mov    (%rax),%eax
  401b7d:	0f af 45 f0          	imul   -0x10(%rbp),%eax
  401b81:	89 c1                	mov    %eax,%ecx
  401b83:	8b 45 f4             	mov    -0xc(%rbp),%eax
  401b86:	01 c8                	add    %ecx,%eax
  401b88:	89 c0                	mov    %eax,%eax
  401b8a:	48 c1 e0 03          	shl    $0x3,%rax
  401b8e:	48 01 c2             	add    %rax,%rdx
  401b91:	0f b6 45 ec          	movzbl -0x14(%rbp),%eax
  401b95:	c5 fb 2a c0          	vcvtsi2sd %eax,%xmm0,%xmm0
  401b99:	c5 fb 11 02          	vmovsd %xmm0,(%rdx)
  401b9d:	c9                   	leaveq 
  401b9e:	c3                   	retq   

0000000000401b9f <SetPixelB>:
  401b9f:	55                   	push   %rbp
  401ba0:	48 89 e5             	mov    %rsp,%rbp
  401ba3:	48 83 ec 20          	sub    $0x20,%rsp
  401ba7:	48 89 7d f8          	mov    %rdi,-0x8(%rbp)
  401bab:	89 75 f4             	mov    %esi,-0xc(%rbp)
  401bae:	89 55 f0             	mov    %edx,-0x10(%rbp)
  401bb1:	89 c8                	mov    %ecx,%eax
  401bb3:	88 45 ec             	mov    %al,-0x14(%rbp)
  401bb6:	48 83 7d f8 00       	cmpq   $0x0,-0x8(%rbp)
  401bbb:	75 19                	jne    401bd6 <SetPixelB+0x37>
  401bbd:	b9 7b 11 41 00       	mov    $0x41117b,%ecx
  401bc2:	ba 48 00 00 00       	mov    $0x48,%edx
  401bc7:	be 0a 11 41 00       	mov    $0x41110a,%esi
  401bcc:	bf 16 11 41 00       	mov    $0x411116,%edi
  401bd1:	e8 9a ee ff ff       	callq  400a70 <__assert_fail@plt>
  401bd6:	48 8b 45 f8          	mov    -0x8(%rbp),%rax
  401bda:	8b 00                	mov    (%rax),%eax
  401bdc:	3b 45 f4             	cmp    -0xc(%rbp),%eax
  401bdf:	77 19                	ja     401bfa <SetPixelB+0x5b>
  401be1:	b9 7b 11 41 00       	mov    $0x41117b,%ecx
  401be6:	ba 4a 00 00 00       	mov    $0x4a,%edx
  401beb:	be 0a 11 41 00       	mov    $0x41110a,%esi
  401bf0:	bf 1c 11 41 00       	mov    $0x41111c,%edi
  401bf5:	e8 76 ee ff ff       	callq  400a70 <__assert_fail@plt>
  401bfa:	48 8b 45 f8          	mov    -0x8(%rbp),%rax
  401bfe:	8b 40 04             	mov    0x4(%rax),%eax
  401c01:	3b 45 f0             	cmp    -0x10(%rbp),%eax
  401c04:	77 19                	ja     401c1f <SetPixelB+0x80>
  401c06:	b9 7b 11 41 00       	mov    $0x41117b,%ecx
  401c0b:	ba 4b 00 00 00       	mov    $0x4b,%edx
  401c10:	be 0a 11 41 00       	mov    $0x41110a,%esi
  401c15:	bf 2b 11 41 00       	mov    $0x41112b,%edi
  401c1a:	e8 51 ee ff ff       	callq  400a70 <__assert_fail@plt>
  401c1f:	48 8b 45 f8          	mov    -0x8(%rbp),%rax
  401c23:	48 8b 50 18          	mov    0x18(%rax),%rdx
  401c27:	48 8b 45 f8          	mov    -0x8(%rbp),%rax
  401c2b:	8b 00                	mov    (%rax),%eax
  401c2d:	0f af 45 f0          	imul   -0x10(%rbp),%eax
  401c31:	89 c1                	mov    %eax,%ecx
  401c33:	8b 45 f4             	mov    -0xc(%rbp),%eax
  401c36:	01 c8                	add    %ecx,%eax
  401c38:	89 c0                	mov    %eax,%eax
  401c3a:	48 c1 e0 03          	shl    $0x3,%rax
  401c3e:	48 01 c2             	add    %rax,%rdx
  401c41:	0f b6 45 ec          	movzbl -0x14(%rbp),%eax
  401c45:	c5 fb 2a c0          	vcvtsi2sd %eax,%xmm0,%xmm0
  401c49:	c5 fb 11 02          	vmovsd %xmm0,(%rdx)
  401c4d:	c9                   	leaveq 
  401c4e:	c3                   	retq   

0000000000401c4f <CreateImage>:
  401c4f:	55                   	push   %rbp
  401c50:	48 89 e5             	mov    %rsp,%rbp
  401c53:	48 83 ec 20          	sub    $0x20,%rsp
  401c57:	89 7d ec             	mov    %edi,-0x14(%rbp)
  401c5a:	89 75 e8             	mov    %esi,-0x18(%rbp)
  401c5d:	bf 20 00 00 00       	mov    $0x20,%edi
  401c62:	e8 89 ee ff ff       	callq  400af0 <malloc@plt>
  401c67:	48 89 45 f8          	mov    %rax,-0x8(%rbp)
  401c6b:	48 8b 45 f8          	mov    -0x8(%rbp),%rax
  401c6f:	8b 55 ec             	mov    -0x14(%rbp),%edx
  401c72:	89 10                	mov    %edx,(%rax)
  401c74:	48 8b 45 f8          	mov    -0x8(%rbp),%rax
  401c78:	8b 55 e8             	mov    -0x18(%rbp),%edx
  401c7b:	89 50 04             	mov    %edx,0x4(%rax)
  401c7e:	8b 55 ec             	mov    -0x14(%rbp),%edx
  401c81:	8b 45 e8             	mov    -0x18(%rbp),%eax
  401c84:	48 0f af c2          	imul   %rdx,%rax
  401c88:	48 c1 e0 03          	shl    $0x3,%rax
  401c8c:	48 89 c7             	mov    %rax,%rdi
  401c8f:	e8 5c ee ff ff       	callq  400af0 <malloc@plt>
  401c94:	48 89 c2             	mov    %rax,%rdx
  401c97:	48 8b 45 f8          	mov    -0x8(%rbp),%rax
  401c9b:	48 89 50 08          	mov    %rdx,0x8(%rax)
  401c9f:	8b 55 ec             	mov    -0x14(%rbp),%edx
  401ca2:	8b 45 e8             	mov    -0x18(%rbp),%eax
  401ca5:	48 0f af c2          	imul   %rdx,%rax
  401ca9:	48 c1 e0 03          	shl    $0x3,%rax
  401cad:	48 89 c7             	mov    %rax,%rdi
  401cb0:	e8 3b ee ff ff       	callq  400af0 <malloc@plt>
  401cb5:	48 89 c2             	mov    %rax,%rdx
  401cb8:	48 8b 45 f8          	mov    -0x8(%rbp),%rax
  401cbc:	48 89 50 10          	mov    %rdx,0x10(%rax)
  401cc0:	8b 55 ec             	mov    -0x14(%rbp),%edx
  401cc3:	8b 45 e8             	mov    -0x18(%rbp),%eax
  401cc6:	48 0f af c2          	imul   %rdx,%rax
  401cca:	48 c1 e0 03          	shl    $0x3,%rax
  401cce:	48 89 c7             	mov    %rax,%rdi
  401cd1:	e8 1a ee ff ff       	callq  400af0 <malloc@plt>
  401cd6:	48 89 c2             	mov    %rax,%rdx
  401cd9:	48 8b 45 f8          	mov    -0x8(%rbp),%rax
  401cdd:	48 89 50 18          	mov    %rdx,0x18(%rax)
  401ce1:	48 83 7d f8 00       	cmpq   $0x0,-0x8(%rbp)
  401ce6:	74 27                	je     401d0f <CreateImage+0xc0>
  401ce8:	48 8b 45 f8          	mov    -0x8(%rbp),%rax
  401cec:	48 8b 40 08          	mov    0x8(%rax),%rax
  401cf0:	48 85 c0             	test   %rax,%rax
  401cf3:	74 1a                	je     401d0f <CreateImage+0xc0>
  401cf5:	48 8b 45 f8          	mov    -0x8(%rbp),%rax
  401cf9:	48 8b 40 10          	mov    0x10(%rax),%rax
  401cfd:	48 85 c0             	test   %rax,%rax
  401d00:	74 0d                	je     401d0f <CreateImage+0xc0>
  401d02:	48 8b 45 f8          	mov    -0x8(%rbp),%rax
  401d06:	48 8b 40 18          	mov    0x18(%rax),%rax
  401d0a:	48 85 c0             	test   %rax,%rax
  401d0d:	75 4d                	jne    401d5c <CreateImage+0x10d>
  401d0f:	bf 3a 11 41 00       	mov    $0x41113a,%edi
  401d14:	e8 f7 ed ff ff       	callq  400b10 <perror@plt>
  401d19:	48 8b 45 f8          	mov    -0x8(%rbp),%rax
  401d1d:	48 8b 40 08          	mov    0x8(%rax),%rax
  401d21:	48 89 c7             	mov    %rax,%rdi
  401d24:	e8 a7 ec ff ff       	callq  4009d0 <free@plt>
  401d29:	48 8b 45 f8          	mov    -0x8(%rbp),%rax
  401d2d:	48 8b 40 10          	mov    0x10(%rax),%rax
  401d31:	48 89 c7             	mov    %rax,%rdi
  401d34:	e8 97 ec ff ff       	callq  4009d0 <free@plt>
  401d39:	48 8b 45 f8          	mov    -0x8(%rbp),%rax
  401d3d:	48 8b 40 18          	mov    0x18(%rax),%rax
  401d41:	48 89 c7             	mov    %rax,%rdi
  401d44:	e8 87 ec ff ff       	callq  4009d0 <free@plt>
  401d49:	48 8b 45 f8          	mov    -0x8(%rbp),%rax
  401d4d:	48 89 c7             	mov    %rax,%rdi
  401d50:	e8 7b ec ff ff       	callq  4009d0 <free@plt>
  401d55:	b8 00 00 00 00       	mov    $0x0,%eax
  401d5a:	eb 04                	jmp    401d60 <CreateImage+0x111>
  401d5c:	48 8b 45 f8          	mov    -0x8(%rbp),%rax
  401d60:	c9                   	leaveq 
  401d61:	c3                   	retq   

0000000000401d62 <DeleteImage>:
  401d62:	55                   	push   %rbp
  401d63:	48 89 e5             	mov    %rsp,%rbp
  401d66:	48 83 ec 10          	sub    $0x10,%rsp
  401d6a:	48 89 7d f8          	mov    %rdi,-0x8(%rbp)
  401d6e:	48 83 7d f8 00       	cmpq   $0x0,-0x8(%rbp)
  401d73:	75 19                	jne    401d8e <DeleteImage+0x2c>
  401d75:	b9 85 11 41 00       	mov    $0x411185,%ecx
  401d7a:	ba 6a 00 00 00       	mov    $0x6a,%edx
  401d7f:	be 0a 11 41 00       	mov    $0x41110a,%esi
  401d84:	bf 16 11 41 00       	mov    $0x411116,%edi
  401d89:	e8 e2 ec ff ff       	callq  400a70 <__assert_fail@plt>
  401d8e:	48 8b 45 f8          	mov    -0x8(%rbp),%rax
  401d92:	48 8b 40 08          	mov    0x8(%rax),%rax
  401d96:	48 89 c7             	mov    %rax,%rdi
  401d99:	e8 32 ec ff ff       	callq  4009d0 <free@plt>
  401d9e:	48 8b 45 f8          	mov    -0x8(%rbp),%rax
  401da2:	48 8b 40 10          	mov    0x10(%rax),%rax
  401da6:	48 89 c7             	mov    %rax,%rdi
  401da9:	e8 22 ec ff ff       	callq  4009d0 <free@plt>
  401dae:	48 8b 45 f8          	mov    -0x8(%rbp),%rax
  401db2:	48 8b 40 18          	mov    0x18(%rax),%rax
  401db6:	48 89 c7             	mov    %rax,%rdi
  401db9:	e8 12 ec ff ff       	callq  4009d0 <free@plt>
  401dbe:	48 8b 45 f8          	mov    -0x8(%rbp),%rax
  401dc2:	48 89 c7             	mov    %rax,%rdi
  401dc5:	e8 06 ec ff ff       	callq  4009d0 <free@plt>
  401dca:	c9                   	leaveq 
  401dcb:	c3                   	retq   

0000000000401dcc <ImageWidth>:
  401dcc:	55                   	push   %rbp
  401dcd:	48 89 e5             	mov    %rsp,%rbp
  401dd0:	48 83 ec 10          	sub    $0x10,%rsp
  401dd4:	48 89 7d f8          	mov    %rdi,-0x8(%rbp)
  401dd8:	48 83 7d f8 00       	cmpq   $0x0,-0x8(%rbp)
  401ddd:	75 19                	jne    401df8 <ImageWidth+0x2c>
  401ddf:	b9 91 11 41 00       	mov    $0x411191,%ecx
  401de4:	ba 75 00 00 00       	mov    $0x75,%edx
  401de9:	be 0a 11 41 00       	mov    $0x41110a,%esi
  401dee:	bf 16 11 41 00       	mov    $0x411116,%edi
  401df3:	e8 78 ec ff ff       	callq  400a70 <__assert_fail@plt>
  401df8:	48 8b 45 f8          	mov    -0x8(%rbp),%rax
  401dfc:	8b 00                	mov    (%rax),%eax
  401dfe:	c9                   	leaveq 
  401dff:	c3                   	retq   

0000000000401e00 <ImageHeight>:
  401e00:	55                   	push   %rbp
  401e01:	48 89 e5             	mov    %rsp,%rbp
  401e04:	48 83 ec 10          	sub    $0x10,%rsp
  401e08:	48 89 7d f8          	mov    %rdi,-0x8(%rbp)
  401e0c:	48 83 7d f8 00       	cmpq   $0x0,-0x8(%rbp)
  401e11:	75 19                	jne    401e2c <ImageHeight+0x2c>
  401e13:	b9 9c 11 41 00       	mov    $0x41119c,%ecx
  401e18:	ba 7d 00 00 00       	mov    $0x7d,%edx
  401e1d:	be 0a 11 41 00       	mov    $0x41110a,%esi
  401e22:	bf 16 11 41 00       	mov    $0x411116,%edi
  401e27:	e8 44 ec ff ff       	callq  400a70 <__assert_fail@plt>
  401e2c:	48 8b 45 f8          	mov    -0x8(%rbp),%rax
  401e30:	8b 40 04             	mov    0x4(%rax),%eax
  401e33:	c9                   	leaveq 
  401e34:	c3                   	retq   

0000000000401e35 <Rotate>:
  401e35:	55                   	push   %rbp
  401e36:	48 89 e5             	mov    %rsp,%rbp
  401e39:	41 57                	push   %r15
  401e3b:	41 56                	push   %r14
  401e3d:	41 55                	push   %r13
  401e3f:	41 54                	push   %r12
  401e41:	53                   	push   %rbx
  401e42:	48 81 ec a8 01 00 00 	sub    $0x1a8,%rsp
  401e49:	48 89 bd 28 ff ff ff 	mov    %rdi,-0xd8(%rbp)
  401e50:	c5 fb 11 85 20 ff ff 	vmovsd %xmm0,-0xe0(%rbp)
  401e57:	ff 
  401e58:	c5 fb 11 8d 18 ff ff 	vmovsd %xmm1,-0xe8(%rbp)
  401e5f:	ff 
  401e60:	89 b5 14 ff ff ff    	mov    %esi,-0xec(%rbp)
  401e66:	89 95 10 ff ff ff    	mov    %edx,-0xf0(%rbp)
  401e6c:	48 89 e0             	mov    %rsp,%rax
  401e6f:	48 89 85 58 fe ff ff 	mov    %rax,-0x1a8(%rbp)
  401e76:	48 83 bd 28 ff ff ff 	cmpq   $0x0,-0xd8(%rbp)
  401e7d:	00 
  401e7e:	75 19                	jne    401e99 <Rotate+0x64>
  401e80:	b9 c5 11 41 00       	mov    $0x4111c5,%ecx
  401e85:	ba 1d 00 00 00       	mov    $0x1d,%edx
  401e8a:	be b0 11 41 00       	mov    $0x4111b0,%esi
  401e8f:	bf bf 11 41 00       	mov    $0x4111bf,%edi
  401e94:	e8 d7 eb ff ff       	callq  400a70 <__assert_fail@plt>
  401e99:	48 8b 85 28 ff ff ff 	mov    -0xd8(%rbp),%rax
  401ea0:	48 89 c7             	mov    %rax,%rdi
  401ea3:	e8 58 ff ff ff       	callq  401e00 <ImageHeight>
  401ea8:	89 45 c4             	mov    %eax,-0x3c(%rbp)
  401eab:	48 8b 85 28 ff ff ff 	mov    -0xd8(%rbp),%rax
  401eb2:	48 89 c7             	mov    %rax,%rdi
  401eb5:	e8 12 ff ff ff       	callq  401dcc <ImageWidth>
  401eba:	89 45 c0             	mov    %eax,-0x40(%rbp)
  401ebd:	8b 75 c4             	mov    -0x3c(%rbp),%esi
  401ec0:	8b 7d c0             	mov    -0x40(%rbp),%edi
  401ec3:	48 63 c6             	movslq %esi,%rax
  401ec6:	48 83 e8 01          	sub    $0x1,%rax
  401eca:	48 89 45 b8          	mov    %rax,-0x48(%rbp)
  401ece:	48 63 c6             	movslq %esi,%rax
  401ed1:	48 89 85 00 ff ff ff 	mov    %rax,-0x100(%rbp)
  401ed8:	48 c7 85 08 ff ff ff 	movq   $0x0,-0xf8(%rbp)
  401edf:	00 00 00 00 
  401ee3:	48 63 c6             	movslq %esi,%rax
  401ee6:	48 c1 e0 03          	shl    $0x3,%rax
  401eea:	48 89 85 00 ff ff ff 	mov    %rax,-0x100(%rbp)
  401ef1:	48 63 c7             	movslq %edi,%rax
  401ef4:	48 83 e8 01          	sub    $0x1,%rax
  401ef8:	48 89 45 b0          	mov    %rax,-0x50(%rbp)
  401efc:	48 63 c6             	movslq %esi,%rax
  401eff:	49 89 c6             	mov    %rax,%r14
  401f02:	41 bf 00 00 00 00    	mov    $0x0,%r15d
  401f08:	48 63 c7             	movslq %edi,%rax
  401f0b:	49 89 c4             	mov    %rax,%r12
  401f0e:	41 bd 00 00 00 00    	mov    $0x0,%r13d
  401f14:	4c 89 fa             	mov    %r15,%rdx
  401f17:	49 0f af d4          	imul   %r12,%rdx
  401f1b:	4c 89 e8             	mov    %r13,%rax
  401f1e:	49 0f af c6          	imul   %r14,%rax
  401f22:	48 8d 0c 02          	lea    (%rdx,%rax,1),%rcx
  401f26:	4c 89 f0             	mov    %r14,%rax
  401f29:	49 f7 e4             	mul    %r12
  401f2c:	48 01 d1             	add    %rdx,%rcx
  401f2f:	48 89 ca             	mov    %rcx,%rdx
  401f32:	48 63 c6             	movslq %esi,%rax
  401f35:	48 89 85 f0 fe ff ff 	mov    %rax,-0x110(%rbp)
  401f3c:	48 c7 85 f8 fe ff ff 	movq   $0x0,-0x108(%rbp)
  401f43:	00 00 00 00 
  401f47:	48 63 c7             	movslq %edi,%rax
  401f4a:	48 89 85 e0 fe ff ff 	mov    %rax,-0x120(%rbp)
  401f51:	48 c7 85 e8 fe ff ff 	movq   $0x0,-0x118(%rbp)
  401f58:	00 00 00 00 
  401f5c:	4c 8b b5 f0 fe ff ff 	mov    -0x110(%rbp),%r14
  401f63:	4c 8b bd f8 fe ff ff 	mov    -0x108(%rbp),%r15
  401f6a:	4c 89 fa             	mov    %r15,%rdx
  401f6d:	4c 8b 85 e0 fe ff ff 	mov    -0x120(%rbp),%r8
  401f74:	4c 8b 8d e8 fe ff ff 	mov    -0x118(%rbp),%r9
  401f7b:	49 0f af d0          	imul   %r8,%rdx
  401f7f:	4c 89 c8             	mov    %r9,%rax
  401f82:	49 0f af c6          	imul   %r14,%rax
  401f86:	48 8d 0c 02          	lea    (%rdx,%rax,1),%rcx
  401f8a:	4c 89 f0             	mov    %r14,%rax
  401f8d:	49 f7 e0             	mul    %r8
  401f90:	48 01 d1             	add    %rdx,%rcx
  401f93:	48 89 ca             	mov    %rcx,%rdx
  401f96:	48 63 d6             	movslq %esi,%rdx
  401f99:	48 63 c7             	movslq %edi,%rax
  401f9c:	48 0f af c2          	imul   %rdx,%rax
  401fa0:	48 c1 e0 03          	shl    $0x3,%rax
  401fa4:	48 8d 50 07          	lea    0x7(%rax),%rdx
  401fa8:	b8 10 00 00 00       	mov    $0x10,%eax
  401fad:	48 83 e8 01          	sub    $0x1,%rax
  401fb1:	48 01 d0             	add    %rdx,%rax
  401fb4:	bb 10 00 00 00       	mov    $0x10,%ebx
  401fb9:	ba 00 00 00 00       	mov    $0x0,%edx
  401fbe:	48 f7 f3             	div    %rbx
  401fc1:	48 6b c0 10          	imul   $0x10,%rax,%rax
  401fc5:	48 29 c4             	sub    %rax,%rsp
  401fc8:	48 89 e0             	mov    %rsp,%rax
  401fcb:	48 83 c0 07          	add    $0x7,%rax
  401fcf:	48 c1 e8 03          	shr    $0x3,%rax
  401fd3:	48 c1 e0 03          	shl    $0x3,%rax
  401fd7:	48 89 45 a8          	mov    %rax,-0x58(%rbp)
  401fdb:	8b 75 c4             	mov    -0x3c(%rbp),%esi
  401fde:	8b 7d c0             	mov    -0x40(%rbp),%edi
  401fe1:	48 63 c6             	movslq %esi,%rax
  401fe4:	48 83 e8 01          	sub    $0x1,%rax
  401fe8:	48 89 45 a0          	mov    %rax,-0x60(%rbp)
  401fec:	48 63 c6             	movslq %esi,%rax
  401fef:	48 89 85 40 fe ff ff 	mov    %rax,-0x1c0(%rbp)
  401ff6:	48 c7 85 48 fe ff ff 	movq   $0x0,-0x1b8(%rbp)
  401ffd:	00 00 00 00 
  402001:	48 63 c6             	movslq %esi,%rax
  402004:	4c 8d 2c c5 00 00 00 	lea    0x0(,%rax,8),%r13
  40200b:	00 
  40200c:	48 63 c7             	movslq %edi,%rax
  40200f:	48 83 e8 01          	sub    $0x1,%rax
  402013:	48 89 45 98          	mov    %rax,-0x68(%rbp)
  402017:	48 63 c6             	movslq %esi,%rax
  40201a:	48 89 85 d0 fe ff ff 	mov    %rax,-0x130(%rbp)
  402021:	48 c7 85 d8 fe ff ff 	movq   $0x0,-0x128(%rbp)
  402028:	00 00 00 00 
  40202c:	48 63 c7             	movslq %edi,%rax
  40202f:	48 89 85 c0 fe ff ff 	mov    %rax,-0x140(%rbp)
  402036:	48 c7 85 c8 fe ff ff 	movq   $0x0,-0x138(%rbp)
  40203d:	00 00 00 00 
  402041:	4c 8b 85 d0 fe ff ff 	mov    -0x130(%rbp),%r8
  402048:	4c 8b 8d d8 fe ff ff 	mov    -0x128(%rbp),%r9
  40204f:	4c 89 ca             	mov    %r9,%rdx
  402052:	4c 8b 95 c0 fe ff ff 	mov    -0x140(%rbp),%r10
  402059:	4c 8b 9d c8 fe ff ff 	mov    -0x138(%rbp),%r11
  402060:	49 0f af d2          	imul   %r10,%rdx
  402064:	4c 89 d8             	mov    %r11,%rax
  402067:	49 0f af c0          	imul   %r8,%rax
  40206b:	48 8d 0c 02          	lea    (%rdx,%rax,1),%rcx
  40206f:	4c 89 c0             	mov    %r8,%rax
  402072:	49 f7 e2             	mul    %r10
  402075:	48 01 d1             	add    %rdx,%rcx
  402078:	48 89 ca             	mov    %rcx,%rdx
  40207b:	48 63 c6             	movslq %esi,%rax
  40207e:	48 89 85 b0 fe ff ff 	mov    %rax,-0x150(%rbp)
  402085:	48 c7 85 b8 fe ff ff 	movq   $0x0,-0x148(%rbp)
  40208c:	00 00 00 00 
  402090:	48 63 c7             	movslq %edi,%rax
  402093:	48 89 85 a0 fe ff ff 	mov    %rax,-0x160(%rbp)
  40209a:	48 c7 85 a8 fe ff ff 	movq   $0x0,-0x158(%rbp)
  4020a1:	00 00 00 00 
  4020a5:	4c 8b 95 b0 fe ff ff 	mov    -0x150(%rbp),%r10
  4020ac:	4c 8b 9d b8 fe ff ff 	mov    -0x148(%rbp),%r11
  4020b3:	4c 89 da             	mov    %r11,%rdx
  4020b6:	4c 8b b5 a0 fe ff ff 	mov    -0x160(%rbp),%r14
  4020bd:	4c 8b bd a8 fe ff ff 	mov    -0x158(%rbp),%r15
  4020c4:	49 0f af d6          	imul   %r14,%rdx
  4020c8:	4c 89 f8             	mov    %r15,%rax
  4020cb:	49 0f af c2          	imul   %r10,%rax
  4020cf:	48 8d 0c 02          	lea    (%rdx,%rax,1),%rcx
  4020d3:	4c 89 d0             	mov    %r10,%rax
  4020d6:	49 f7 e6             	mul    %r14
  4020d9:	48 01 d1             	add    %rdx,%rcx
  4020dc:	48 89 ca             	mov    %rcx,%rdx
  4020df:	48 63 d6             	movslq %esi,%rdx
  4020e2:	48 63 c7             	movslq %edi,%rax
  4020e5:	48 0f af c2          	imul   %rdx,%rax
  4020e9:	48 c1 e0 03          	shl    $0x3,%rax
  4020ed:	48 8d 50 07          	lea    0x7(%rax),%rdx
  4020f1:	b8 10 00 00 00       	mov    $0x10,%eax
  4020f6:	48 83 e8 01          	sub    $0x1,%rax
  4020fa:	48 01 d0             	add    %rdx,%rax
  4020fd:	bb 10 00 00 00       	mov    $0x10,%ebx
  402102:	ba 00 00 00 00       	mov    $0x0,%edx
  402107:	48 f7 f3             	div    %rbx
  40210a:	48 6b c0 10          	imul   $0x10,%rax,%rax
  40210e:	48 29 c4             	sub    %rax,%rsp
  402111:	48 89 e0             	mov    %rsp,%rax
  402114:	48 83 c0 07          	add    $0x7,%rax
  402118:	48 c1 e8 03          	shr    $0x3,%rax
  40211c:	48 c1 e0 03          	shl    $0x3,%rax
  402120:	48 89 45 90          	mov    %rax,-0x70(%rbp)
  402124:	8b 75 c4             	mov    -0x3c(%rbp),%esi
  402127:	8b 7d c0             	mov    -0x40(%rbp),%edi
  40212a:	48 63 c6             	movslq %esi,%rax
  40212d:	48 83 e8 01          	sub    $0x1,%rax
  402131:	48 89 45 88          	mov    %rax,-0x78(%rbp)
  402135:	48 63 c6             	movslq %esi,%rax
  402138:	48 89 85 30 fe ff ff 	mov    %rax,-0x1d0(%rbp)
  40213f:	48 c7 85 38 fe ff ff 	movq   $0x0,-0x1c8(%rbp)
  402146:	00 00 00 00 
  40214a:	48 63 c6             	movslq %esi,%rax
  40214d:	4c 8d 24 c5 00 00 00 	lea    0x0(,%rax,8),%r12
  402154:	00 
  402155:	48 63 c7             	movslq %edi,%rax
  402158:	48 83 e8 01          	sub    $0x1,%rax
  40215c:	48 89 45 80          	mov    %rax,-0x80(%rbp)
  402160:	48 63 c6             	movslq %esi,%rax
  402163:	48 89 85 90 fe ff ff 	mov    %rax,-0x170(%rbp)
  40216a:	48 c7 85 98 fe ff ff 	movq   $0x0,-0x168(%rbp)
  402171:	00 00 00 00 
  402175:	48 63 c7             	movslq %edi,%rax
  402178:	48 89 85 80 fe ff ff 	mov    %rax,-0x180(%rbp)
  40217f:	48 c7 85 88 fe ff ff 	movq   $0x0,-0x178(%rbp)
  402186:	00 00 00 00 
  40218a:	4c 8b b5 90 fe ff ff 	mov    -0x170(%rbp),%r14
  402191:	4c 8b bd 98 fe ff ff 	mov    -0x168(%rbp),%r15
  402198:	4c 89 fa             	mov    %r15,%rdx
  40219b:	4c 8b 85 80 fe ff ff 	mov    -0x180(%rbp),%r8
  4021a2:	4c 8b 8d 88 fe ff ff 	mov    -0x178(%rbp),%r9
  4021a9:	49 0f af d0          	imul   %r8,%rdx
  4021ad:	4c 89 c8             	mov    %r9,%rax
  4021b0:	49 0f af c6          	imul   %r14,%rax
  4021b4:	48 8d 0c 02          	lea    (%rdx,%rax,1),%rcx
  4021b8:	4c 89 f0             	mov    %r14,%rax
  4021bb:	49 f7 e0             	mul    %r8
  4021be:	48 01 d1             	add    %rdx,%rcx
  4021c1:	48 89 ca             	mov    %rcx,%rdx
  4021c4:	48 63 c6             	movslq %esi,%rax
  4021c7:	48 89 85 70 fe ff ff 	mov    %rax,-0x190(%rbp)
  4021ce:	48 c7 85 78 fe ff ff 	movq   $0x0,-0x188(%rbp)
  4021d5:	00 00 00 00 
  4021d9:	48 63 c7             	movslq %edi,%rax
  4021dc:	48 89 85 60 fe ff ff 	mov    %rax,-0x1a0(%rbp)
  4021e3:	48 c7 85 68 fe ff ff 	movq   $0x0,-0x198(%rbp)
  4021ea:	00 00 00 00 
  4021ee:	4c 8b 85 70 fe ff ff 	mov    -0x190(%rbp),%r8
  4021f5:	4c 8b 8d 78 fe ff ff 	mov    -0x188(%rbp),%r9
  4021fc:	4c 89 ca             	mov    %r9,%rdx
  4021ff:	4c 8b 95 60 fe ff ff 	mov    -0x1a0(%rbp),%r10
  402206:	4c 8b 9d 68 fe ff ff 	mov    -0x198(%rbp),%r11
  40220d:	49 0f af d2          	imul   %r10,%rdx
  402211:	4c 89 d8             	mov    %r11,%rax
  402214:	49 0f af c0          	imul   %r8,%rax
  402218:	48 8d 0c 02          	lea    (%rdx,%rax,1),%rcx
  40221c:	4c 89 c0             	mov    %r8,%rax
  40221f:	49 f7 e2             	mul    %r10
  402222:	48 01 d1             	add    %rdx,%rcx
  402225:	48 89 ca             	mov    %rcx,%rdx
  402228:	48 63 d6             	movslq %esi,%rdx
  40222b:	48 63 c7             	movslq %edi,%rax
  40222e:	48 0f af c2          	imul   %rdx,%rax
  402232:	48 c1 e0 03          	shl    $0x3,%rax
  402236:	48 8d 50 07          	lea    0x7(%rax),%rdx
  40223a:	b8 10 00 00 00       	mov    $0x10,%eax
  40223f:	48 83 e8 01          	sub    $0x1,%rax
  402243:	48 01 d0             	add    %rdx,%rax
  402246:	bb 10 00 00 00       	mov    $0x10,%ebx
  40224b:	ba 00 00 00 00       	mov    $0x0,%edx
  402250:	48 f7 f3             	div    %rbx
  402253:	48 6b c0 10          	imul   $0x10,%rax,%rax
  402257:	48 29 c4             	sub    %rax,%rsp
  40225a:	48 89 e0             	mov    %rsp,%rax
  40225d:	48 83 c0 07          	add    $0x7,%rax
  402261:	48 c1 e8 03          	shr    $0x3,%rax
  402265:	48 c1 e0 03          	shl    $0x3,%rax
  402269:	48 89 85 78 ff ff ff 	mov    %rax,-0x88(%rbp)
  402270:	48 b8 18 2d 44 54 fb 	movabs $0x400921fb54442d18,%rax
  402277:	21 09 40 
  40227a:	48 89 85 70 ff ff ff 	mov    %rax,-0x90(%rbp)
  402281:	c5 fb 10 8d 20 ff ff 	vmovsd -0xe0(%rbp),%xmm1
  402288:	ff 
  402289:	c5 fb 10 05 4f ef 00 	vmovsd 0xef4f(%rip),%xmm0        # 4111e0 <__PRETTY_FUNCTION__.3408+0x14>
  402290:	00 
  402291:	c5 f9 57 c1          	vxorpd %xmm1,%xmm0,%xmm0
  402295:	c5 fb 10 0d 53 ef 00 	vmovsd 0xef53(%rip),%xmm1        # 4111f0 <__PRETTY_FUNCTION__.3408+0x24>
  40229c:	00 
  40229d:	c5 fb 5e c1          	vdivsd %xmm1,%xmm0,%xmm0
  4022a1:	c5 fb 58 c0          	vaddsd %xmm0,%xmm0,%xmm0
  4022a5:	c5 fb 59 85 70 ff ff 	vmulsd -0x90(%rbp),%xmm0,%xmm0
  4022ac:	ff 
  4022ad:	c5 fb 11 85 68 ff ff 	vmovsd %xmm0,-0x98(%rbp)
  4022b4:	ff 
  4022b5:	48 8b 85 18 ff ff ff 	mov    -0xe8(%rbp),%rax
  4022bc:	48 89 85 60 ff ff ff 	mov    %rax,-0xa0(%rbp)
  4022c3:	48 8b 85 18 ff ff ff 	mov    -0xe8(%rbp),%rax
  4022ca:	48 89 85 58 ff ff ff 	mov    %rax,-0xa8(%rbp)
  4022d1:	48 8b 85 68 ff ff ff 	mov    -0x98(%rbp),%rax
  4022d8:	48 89 85 f0 fe ff ff 	mov    %rax,-0x110(%rbp)
  4022df:	c5 fb 10 85 f0 fe ff 	vmovsd -0x110(%rbp),%xmm0
  4022e6:	ff 
  4022e7:	e8 a4 e7 ff ff       	callq  400a90 <cos@plt>
  4022ec:	c5 fb 5e 85 60 ff ff 	vdivsd -0xa0(%rbp),%xmm0,%xmm0
  4022f3:	ff 
  4022f4:	c5 fb 11 85 30 ff ff 	vmovsd %xmm0,-0xd0(%rbp)
  4022fb:	ff 
  4022fc:	48 8b 85 68 ff ff ff 	mov    -0x98(%rbp),%rax
  402303:	48 89 85 f0 fe ff ff 	mov    %rax,-0x110(%rbp)
  40230a:	c5 fb 10 85 f0 fe ff 	vmovsd -0x110(%rbp),%xmm0
  402311:	ff 
  402312:	e8 09 e8 ff ff       	callq  400b20 <sin@plt>
  402317:	c5 fb 10 0d c1 ee 00 	vmovsd 0xeec1(%rip),%xmm1        # 4111e0 <__PRETTY_FUNCTION__.3408+0x14>
  40231e:	00 
  40231f:	c5 f9 57 c1          	vxorpd %xmm1,%xmm0,%xmm0
  402323:	c5 fb 5e 85 60 ff ff 	vdivsd -0xa0(%rbp),%xmm0,%xmm0
  40232a:	ff 
  40232b:	c5 fb 11 85 38 ff ff 	vmovsd %xmm0,-0xc8(%rbp)
  402332:	ff 
  402333:	48 8b 85 68 ff ff ff 	mov    -0x98(%rbp),%rax
  40233a:	48 89 85 f0 fe ff ff 	mov    %rax,-0x110(%rbp)
  402341:	c5 fb 10 85 f0 fe ff 	vmovsd -0x110(%rbp),%xmm0
  402348:	ff 
  402349:	e8 d2 e7 ff ff       	callq  400b20 <sin@plt>
  40234e:	c5 fb 5e 85 58 ff ff 	vdivsd -0xa8(%rbp),%xmm0,%xmm0
  402355:	ff 
  402356:	c5 fb 11 85 40 ff ff 	vmovsd %xmm0,-0xc0(%rbp)
  40235d:	ff 
  40235e:	48 8b 85 68 ff ff ff 	mov    -0x98(%rbp),%rax
  402365:	48 89 85 f0 fe ff ff 	mov    %rax,-0x110(%rbp)
  40236c:	c5 fb 10 85 f0 fe ff 	vmovsd -0x110(%rbp),%xmm0
  402373:	ff 
  402374:	e8 17 e7 ff ff       	callq  400a90 <cos@plt>
  402379:	c5 fb 5e 85 58 ff ff 	vdivsd -0xa8(%rbp),%xmm0,%xmm0
  402380:	ff 
  402381:	c5 fb 11 85 48 ff ff 	vmovsd %xmm0,-0xb8(%rbp)
  402388:	ff 
  402389:	c7 45 c8 00 00 00 00 	movl   $0x0,-0x38(%rbp)
  402390:	e9 65 02 00 00       	jmpq   4025fa <Rotate+0x7c5>
  402395:	c7 45 cc 00 00 00 00 	movl   $0x0,-0x34(%rbp)
  40239c:	e9 49 02 00 00       	jmpq   4025ea <Rotate+0x7b5>
  4023a1:	8b 85 14 ff ff ff    	mov    -0xec(%rbp),%eax
  4023a7:	8b 55 cc             	mov    -0x34(%rbp),%edx
  4023aa:	29 c2                	sub    %eax,%edx
  4023ac:	89 d0                	mov    %edx,%eax
  4023ae:	c5 fb 2a c0          	vcvtsi2sd %eax,%xmm0,%xmm0
  4023b2:	c5 fb 10 8d 30 ff ff 	vmovsd -0xd0(%rbp),%xmm1
  4023b9:	ff 
  4023ba:	c5 fb 59 c9          	vmulsd %xmm1,%xmm0,%xmm1
  4023be:	8b 85 10 ff ff ff    	mov    -0xf0(%rbp),%eax
  4023c4:	8b 55 c8             	mov    -0x38(%rbp),%edx
  4023c7:	29 c2                	sub    %eax,%edx
  4023c9:	89 d0                	mov    %edx,%eax
  4023cb:	c5 fb 2a c0          	vcvtsi2sd %eax,%xmm0,%xmm0
  4023cf:	c5 fb 10 95 38 ff ff 	vmovsd -0xc8(%rbp),%xmm2
  4023d6:	ff 
  4023d7:	c5 fb 59 c2          	vmulsd %xmm2,%xmm0,%xmm0
  4023db:	c5 f3 58 c8          	vaddsd %xmm0,%xmm1,%xmm1
  4023df:	c5 fb 2a 85 14 ff ff 	vcvtsi2sdl -0xec(%rbp),%xmm0,%xmm0
  4023e6:	ff 
  4023e7:	c5 f3 58 c0          	vaddsd %xmm0,%xmm1,%xmm0
  4023eb:	c5 fb 2c c0          	vcvttsd2si %xmm0,%eax
  4023ef:	89 85 54 ff ff ff    	mov    %eax,-0xac(%rbp)
  4023f5:	8b 85 14 ff ff ff    	mov    -0xec(%rbp),%eax
  4023fb:	8b 55 cc             	mov    -0x34(%rbp),%edx
  4023fe:	29 c2                	sub    %eax,%edx
  402400:	89 d0                	mov    %edx,%eax
  402402:	c5 fb 2a c0          	vcvtsi2sd %eax,%xmm0,%xmm0
  402406:	c5 fb 10 8d 40 ff ff 	vmovsd -0xc0(%rbp),%xmm1
  40240d:	ff 
  40240e:	c5 fb 59 c9          	vmulsd %xmm1,%xmm0,%xmm1
  402412:	8b 85 10 ff ff ff    	mov    -0xf0(%rbp),%eax
  402418:	8b 55 c8             	mov    -0x38(%rbp),%edx
  40241b:	29 c2                	sub    %eax,%edx
  40241d:	89 d0                	mov    %edx,%eax
  40241f:	c5 fb 2a c0          	vcvtsi2sd %eax,%xmm0,%xmm0
  402423:	c5 fb 10 95 48 ff ff 	vmovsd -0xb8(%rbp),%xmm2
  40242a:	ff 
  40242b:	c5 fb 59 c2          	vmulsd %xmm2,%xmm0,%xmm0
  40242f:	c5 f3 58 c8          	vaddsd %xmm0,%xmm1,%xmm1
  402433:	c5 fb 2a 85 10 ff ff 	vcvtsi2sdl -0xf0(%rbp),%xmm0,%xmm0
  40243a:	ff 
  40243b:	c5 f3 58 c0          	vaddsd %xmm0,%xmm1,%xmm0
  40243f:	c5 fb 2c c0          	vcvttsd2si %xmm0,%eax
  402443:	89 85 50 ff ff ff    	mov    %eax,-0xb0(%rbp)
  402449:	83 bd 54 ff ff ff 00 	cmpl   $0x0,-0xac(%rbp)
  402450:	78 25                	js     402477 <Rotate+0x642>
  402452:	8b 45 c0             	mov    -0x40(%rbp),%eax
  402455:	83 e8 01             	sub    $0x1,%eax
  402458:	3b 85 54 ff ff ff    	cmp    -0xac(%rbp),%eax
  40245e:	7c 17                	jl     402477 <Rotate+0x642>
  402460:	83 bd 50 ff ff ff 00 	cmpl   $0x0,-0xb0(%rbp)
  402467:	78 0e                	js     402477 <Rotate+0x642>
  402469:	8b 45 c4             	mov    -0x3c(%rbp),%eax
  40246c:	83 e8 01             	sub    $0x1,%eax
  40246f:	3b 85 50 ff ff ff    	cmp    -0xb0(%rbp),%eax
  402475:	7d 7e                	jge    4024f5 <Rotate+0x6c0>
  402477:	48 8b b5 00 ff ff ff 	mov    -0x100(%rbp),%rsi
  40247e:	48 c1 ee 03          	shr    $0x3,%rsi
  402482:	48 8b 55 a8          	mov    -0x58(%rbp),%rdx
  402486:	8b 45 c8             	mov    -0x38(%rbp),%eax
  402489:	48 63 c8             	movslq %eax,%rcx
  40248c:	8b 45 cc             	mov    -0x34(%rbp),%eax
  40248f:	48 98                	cltq   
  402491:	48 0f af c6          	imul   %rsi,%rax
  402495:	48 01 c1             	add    %rax,%rcx
  402498:	b8 00 00 00 00       	mov    $0x0,%eax
  40249d:	48 89 04 ca          	mov    %rax,(%rdx,%rcx,8)
  4024a1:	4c 89 ee             	mov    %r13,%rsi
  4024a4:	48 c1 ee 03          	shr    $0x3,%rsi
  4024a8:	48 8b 55 90          	mov    -0x70(%rbp),%rdx
  4024ac:	8b 45 c8             	mov    -0x38(%rbp),%eax
  4024af:	48 63 c8             	movslq %eax,%rcx
  4024b2:	8b 45 cc             	mov    -0x34(%rbp),%eax
  4024b5:	48 98                	cltq   
  4024b7:	48 0f af c6          	imul   %rsi,%rax
  4024bb:	48 01 c1             	add    %rax,%rcx
  4024be:	b8 00 00 00 00       	mov    $0x0,%eax
  4024c3:	48 89 04 ca          	mov    %rax,(%rdx,%rcx,8)
  4024c7:	4c 89 e6             	mov    %r12,%rsi
  4024ca:	48 c1 ee 03          	shr    $0x3,%rsi
  4024ce:	48 8b 95 78 ff ff ff 	mov    -0x88(%rbp),%rdx
  4024d5:	8b 45 c8             	mov    -0x38(%rbp),%eax
  4024d8:	48 63 c8             	movslq %eax,%rcx
  4024db:	8b 45 cc             	mov    -0x34(%rbp),%eax
  4024de:	48 98                	cltq   
  4024e0:	48 0f af c6          	imul   %rsi,%rax
  4024e4:	48 01 c1             	add    %rax,%rcx
  4024e7:	b8 00 00 00 00       	mov    $0x0,%eax
  4024ec:	48 89 04 ca          	mov    %rax,(%rdx,%rcx,8)
  4024f0:	e9 f1 00 00 00       	jmpq   4025e6 <Rotate+0x7b1>
  4024f5:	48 8b 9d 00 ff ff ff 	mov    -0x100(%rbp),%rbx
  4024fc:	48 c1 eb 03          	shr    $0x3,%rbx
  402500:	8b 95 50 ff ff ff    	mov    -0xb0(%rbp),%edx
  402506:	8b 8d 54 ff ff ff    	mov    -0xac(%rbp),%ecx
  40250c:	48 8b 85 28 ff ff ff 	mov    -0xd8(%rbp),%rax
  402513:	89 ce                	mov    %ecx,%esi
  402515:	48 89 c7             	mov    %rax,%rdi
  402518:	e8 21 f3 ff ff       	callq  40183e <GetPixelR>
  40251d:	c5 fb 11 85 f0 fe ff 	vmovsd %xmm0,-0x110(%rbp)
  402524:	ff 
  402525:	48 8b 85 f0 fe ff ff 	mov    -0x110(%rbp),%rax
  40252c:	48 8b 55 a8          	mov    -0x58(%rbp),%rdx
  402530:	8b 4d c8             	mov    -0x38(%rbp),%ecx
  402533:	48 63 f1             	movslq %ecx,%rsi
  402536:	8b 4d cc             	mov    -0x34(%rbp),%ecx
  402539:	48 63 c9             	movslq %ecx,%rcx
  40253c:	48 0f af cb          	imul   %rbx,%rcx
  402540:	48 01 f1             	add    %rsi,%rcx
  402543:	48 89 04 ca          	mov    %rax,(%rdx,%rcx,8)
  402547:	4c 89 eb             	mov    %r13,%rbx
  40254a:	48 c1 eb 03          	shr    $0x3,%rbx
  40254e:	8b 95 50 ff ff ff    	mov    -0xb0(%rbp),%edx
  402554:	8b 8d 54 ff ff ff    	mov    -0xac(%rbp),%ecx
  40255a:	48 8b 85 28 ff ff ff 	mov    -0xd8(%rbp),%rax
  402561:	89 ce                	mov    %ecx,%esi
  402563:	48 89 c7             	mov    %rax,%rdi
  402566:	e8 7e f3 ff ff       	callq  4018e9 <GetPixelG>
  40256b:	c5 fb 11 85 f0 fe ff 	vmovsd %xmm0,-0x110(%rbp)
  402572:	ff 
  402573:	48 8b 85 f0 fe ff ff 	mov    -0x110(%rbp),%rax
  40257a:	48 8b 55 90          	mov    -0x70(%rbp),%rdx
  40257e:	8b 4d c8             	mov    -0x38(%rbp),%ecx
  402581:	48 63 f1             	movslq %ecx,%rsi
  402584:	8b 4d cc             	mov    -0x34(%rbp),%ecx
  402587:	48 63 c9             	movslq %ecx,%rcx
  40258a:	48 0f af cb          	imul   %rbx,%rcx
  40258e:	48 01 f1             	add    %rsi,%rcx
  402591:	48 89 04 ca          	mov    %rax,(%rdx,%rcx,8)
  402595:	4c 89 e3             	mov    %r12,%rbx
  402598:	48 c1 eb 03          	shr    $0x3,%rbx
  40259c:	8b 95 50 ff ff ff    	mov    -0xb0(%rbp),%edx
  4025a2:	8b 8d 54 ff ff ff    	mov    -0xac(%rbp),%ecx
  4025a8:	48 8b 85 28 ff ff ff 	mov    -0xd8(%rbp),%rax
  4025af:	89 ce                	mov    %ecx,%esi
  4025b1:	48 89 c7             	mov    %rax,%rdi
  4025b4:	e8 db f3 ff ff       	callq  401994 <GetPixelB>
  4025b9:	c5 fb 11 85 f0 fe ff 	vmovsd %xmm0,-0x110(%rbp)
  4025c0:	ff 
  4025c1:	48 8b 85 f0 fe ff ff 	mov    -0x110(%rbp),%rax
  4025c8:	48 8b 95 78 ff ff ff 	mov    -0x88(%rbp),%rdx
  4025cf:	8b 4d c8             	mov    -0x38(%rbp),%ecx
  4025d2:	48 63 f1             	movslq %ecx,%rsi
  4025d5:	8b 4d cc             	mov    -0x34(%rbp),%ecx
  4025d8:	48 63 c9             	movslq %ecx,%rcx
  4025db:	48 0f af cb          	imul   %rbx,%rcx
  4025df:	48 01 f1             	add    %rsi,%rcx
  4025e2:	48 89 04 ca          	mov    %rax,(%rdx,%rcx,8)
  4025e6:	83 45 cc 01          	addl   $0x1,-0x34(%rbp)
  4025ea:	8b 45 cc             	mov    -0x34(%rbp),%eax
  4025ed:	3b 45 c0             	cmp    -0x40(%rbp),%eax
  4025f0:	0f 8c ab fd ff ff    	jl     4023a1 <Rotate+0x56c>
  4025f6:	83 45 c8 01          	addl   $0x1,-0x38(%rbp)
  4025fa:	8b 45 c8             	mov    -0x38(%rbp),%eax
  4025fd:	3b 45 c4             	cmp    -0x3c(%rbp),%eax
  402600:	0f 8c 8f fd ff ff    	jl     402395 <Rotate+0x560>
  402606:	c7 45 c8 00 00 00 00 	movl   $0x0,-0x38(%rbp)
  40260d:	e9 e4 00 00 00       	jmpq   4026f6 <Rotate+0x8c1>
  402612:	c7 45 cc 00 00 00 00 	movl   $0x0,-0x34(%rbp)
  402619:	e9 c8 00 00 00       	jmpq   4026e6 <Rotate+0x8b1>
  40261e:	48 8b b5 00 ff ff ff 	mov    -0x100(%rbp),%rsi
  402625:	48 c1 ee 03          	shr    $0x3,%rsi
  402629:	48 8b 45 a8          	mov    -0x58(%rbp),%rax
  40262d:	8b 55 c8             	mov    -0x38(%rbp),%edx
  402630:	48 63 ca             	movslq %edx,%rcx
  402633:	8b 55 cc             	mov    -0x34(%rbp),%edx
  402636:	48 63 d2             	movslq %edx,%rdx
  402639:	48 0f af d6          	imul   %rsi,%rdx
  40263d:	48 01 ca             	add    %rcx,%rdx
  402640:	c5 fb 10 04 d0       	vmovsd (%rax,%rdx,8),%xmm0
  402645:	c5 fb 2c c0          	vcvttsd2si %xmm0,%eax
  402649:	0f b6 c8             	movzbl %al,%ecx
  40264c:	8b 55 c8             	mov    -0x38(%rbp),%edx
  40264f:	8b 75 cc             	mov    -0x34(%rbp),%esi
  402652:	48 8b 85 28 ff ff ff 	mov    -0xd8(%rbp),%rax
  402659:	48 89 c7             	mov    %rax,%rdi
  40265c:	e8 de f3 ff ff       	callq  401a3f <SetPixelR>
  402661:	4c 89 ee             	mov    %r13,%rsi
  402664:	48 c1 ee 03          	shr    $0x3,%rsi
  402668:	48 8b 45 90          	mov    -0x70(%rbp),%rax
  40266c:	8b 55 c8             	mov    -0x38(%rbp),%edx
  40266f:	48 63 ca             	movslq %edx,%rcx
  402672:	8b 55 cc             	mov    -0x34(%rbp),%edx
  402675:	48 63 d2             	movslq %edx,%rdx
  402678:	48 0f af d6          	imul   %rsi,%rdx
  40267c:	48 01 ca             	add    %rcx,%rdx
  40267f:	c5 fb 10 04 d0       	vmovsd (%rax,%rdx,8),%xmm0
  402684:	c5 fb 2c c0          	vcvttsd2si %xmm0,%eax
  402688:	0f b6 c8             	movzbl %al,%ecx
  40268b:	8b 55 c8             	mov    -0x38(%rbp),%edx
  40268e:	8b 75 cc             	mov    -0x34(%rbp),%esi
  402691:	48 8b 85 28 ff ff ff 	mov    -0xd8(%rbp),%rax
  402698:	48 89 c7             	mov    %rax,%rdi
  40269b:	e8 4f f4 ff ff       	callq  401aef <SetPixelG>
  4026a0:	4c 89 e6             	mov    %r12,%rsi
  4026a3:	48 c1 ee 03          	shr    $0x3,%rsi
  4026a7:	48 8b 85 78 ff ff ff 	mov    -0x88(%rbp),%rax
  4026ae:	8b 55 c8             	mov    -0x38(%rbp),%edx
  4026b1:	48 63 ca             	movslq %edx,%rcx
  4026b4:	8b 55 cc             	mov    -0x34(%rbp),%edx
  4026b7:	48 63 d2             	movslq %edx,%rdx
  4026ba:	48 0f af d6          	imul   %rsi,%rdx
  4026be:	48 01 ca             	add    %rcx,%rdx
  4026c1:	c5 fb 10 04 d0       	vmovsd (%rax,%rdx,8),%xmm0
  4026c6:	c5 fb 2c c0          	vcvttsd2si %xmm0,%eax
  4026ca:	0f b6 c8             	movzbl %al,%ecx
  4026cd:	8b 55 c8             	mov    -0x38(%rbp),%edx
  4026d0:	8b 75 cc             	mov    -0x34(%rbp),%esi
  4026d3:	48 8b 85 28 ff ff ff 	mov    -0xd8(%rbp),%rax
  4026da:	48 89 c7             	mov    %rax,%rdi
  4026dd:	e8 bd f4 ff ff       	callq  401b9f <SetPixelB>
  4026e2:	83 45 cc 01          	addl   $0x1,-0x34(%rbp)
  4026e6:	8b 45 cc             	mov    -0x34(%rbp),%eax
  4026e9:	3b 45 c0             	cmp    -0x40(%rbp),%eax
  4026ec:	0f 8c 2c ff ff ff    	jl     40261e <Rotate+0x7e9>
  4026f2:	83 45 c8 01          	addl   $0x1,-0x38(%rbp)
  4026f6:	8b 45 c8             	mov    -0x38(%rbp),%eax
  4026f9:	3b 45 c4             	cmp    -0x3c(%rbp),%eax
  4026fc:	0f 8c 10 ff ff ff    	jl     402612 <Rotate+0x7dd>
  402702:	48 8b 85 28 ff ff ff 	mov    -0xd8(%rbp),%rax
  402709:	48 8b a5 58 fe ff ff 	mov    -0x1a8(%rbp),%rsp
  402710:	48 8d 65 d8          	lea    -0x28(%rbp),%rsp
  402714:	5b                   	pop    %rbx
  402715:	41 5c                	pop    %r12
  402717:	41 5d                	pop    %r13
  402719:	41 5e                	pop    %r14
  40271b:	41 5f                	pop    %r15
  40271d:	5d                   	pop    %rbp
  40271e:	c3                   	retq   

000000000040271f <MotionBlur>:
  40271f:	55                   	push   %rbp
  402720:	48 89 e5             	mov    %rsp,%rbp
  402723:	48 83 ec 40          	sub    $0x40,%rsp
  402727:	48 89 7d c8          	mov    %rdi,-0x38(%rbp)
  40272b:	89 f0                	mov    %esi,%eax
  40272d:	88 45 c4             	mov    %al,-0x3c(%rbp)
  402730:	48 83 7d c8 00       	cmpq   $0x0,-0x38(%rbp)
  402735:	75 19                	jne    402750 <MotionBlur+0x31>
  402737:	b9 cc 11 41 00       	mov    $0x4111cc,%ecx
  40273c:	ba 5a 00 00 00       	mov    $0x5a,%edx
  402741:	be b0 11 41 00       	mov    $0x4111b0,%esi
  402746:	bf bf 11 41 00       	mov    $0x4111bf,%edi
  40274b:	e8 20 e3 ff ff       	callq  400a70 <__assert_fail@plt>
  402750:	48 8b 45 c8          	mov    -0x38(%rbp),%rax
  402754:	48 89 c7             	mov    %rax,%rdi
  402757:	e8 a4 f6 ff ff       	callq  401e00 <ImageHeight>
  40275c:	89 45 d8             	mov    %eax,-0x28(%rbp)
  40275f:	48 8b 45 c8          	mov    -0x38(%rbp),%rax
  402763:	48 89 c7             	mov    %rax,%rdi
  402766:	e8 61 f6 ff ff       	callq  401dcc <ImageWidth>
  40276b:	89 45 d4             	mov    %eax,-0x2c(%rbp)
  40276e:	c7 45 e0 00 00 00 00 	movl   $0x0,-0x20(%rbp)
  402775:	e9 f8 01 00 00       	jmpq   402972 <MotionBlur+0x253>
  40277a:	c7 45 dc 00 00 00 00 	movl   $0x0,-0x24(%rbp)
  402781:	e9 dc 01 00 00       	jmpq   402962 <MotionBlur+0x243>
  402786:	b8 00 00 00 00       	mov    $0x0,%eax
  40278b:	48 89 45 f8          	mov    %rax,-0x8(%rbp)
  40278f:	b8 00 00 00 00       	mov    $0x0,%eax
  402794:	48 89 45 f0          	mov    %rax,-0x10(%rbp)
  402798:	b8 00 00 00 00       	mov    $0x0,%eax
  40279d:	48 89 45 e8          	mov    %rax,-0x18(%rbp)
  4027a1:	c7 45 e4 00 00 00 00 	movl   $0x0,-0x1c(%rbp)
  4027a8:	e9 9f 00 00 00       	jmpq   40284c <MotionBlur+0x12d>
  4027ad:	8b 45 e4             	mov    -0x1c(%rbp),%eax
  4027b0:	8b 55 e0             	mov    -0x20(%rbp),%edx
  4027b3:	01 c2                	add    %eax,%edx
  4027b5:	8b 45 d4             	mov    -0x2c(%rbp),%eax
  4027b8:	83 e8 01             	sub    $0x1,%eax
  4027bb:	39 c2                	cmp    %eax,%edx
  4027bd:	7c 05                	jl     4027c4 <MotionBlur+0xa5>
  4027bf:	e9 95 00 00 00       	jmpq   402859 <MotionBlur+0x13a>
  4027c4:	8b 55 dc             	mov    -0x24(%rbp),%edx
  4027c7:	8b 45 e4             	mov    -0x1c(%rbp),%eax
  4027ca:	8b 4d e0             	mov    -0x20(%rbp),%ecx
  4027cd:	01 c8                	add    %ecx,%eax
  4027cf:	83 c0 01             	add    $0x1,%eax
  4027d2:	89 c1                	mov    %eax,%ecx
  4027d4:	48 8b 45 c8          	mov    -0x38(%rbp),%rax
  4027d8:	89 ce                	mov    %ecx,%esi
  4027da:	48 89 c7             	mov    %rax,%rdi
  4027dd:	e8 5c f0 ff ff       	callq  40183e <GetPixelR>
  4027e2:	c5 fb 10 4d f8       	vmovsd -0x8(%rbp),%xmm1
  4027e7:	c5 f3 58 c0          	vaddsd %xmm0,%xmm1,%xmm0
  4027eb:	c5 fb 11 45 f8       	vmovsd %xmm0,-0x8(%rbp)
  4027f0:	8b 55 dc             	mov    -0x24(%rbp),%edx
  4027f3:	8b 45 e4             	mov    -0x1c(%rbp),%eax
  4027f6:	8b 4d e0             	mov    -0x20(%rbp),%ecx
  4027f9:	01 c8                	add    %ecx,%eax
  4027fb:	83 c0 01             	add    $0x1,%eax
  4027fe:	89 c1                	mov    %eax,%ecx
  402800:	48 8b 45 c8          	mov    -0x38(%rbp),%rax
  402804:	89 ce                	mov    %ecx,%esi
  402806:	48 89 c7             	mov    %rax,%rdi
  402809:	e8 db f0 ff ff       	callq  4018e9 <GetPixelG>
  40280e:	c5 fb 10 4d f0       	vmovsd -0x10(%rbp),%xmm1
  402813:	c5 f3 58 c0          	vaddsd %xmm0,%xmm1,%xmm0
  402817:	c5 fb 11 45 f0       	vmovsd %xmm0,-0x10(%rbp)
  40281c:	8b 55 dc             	mov    -0x24(%rbp),%edx
  40281f:	8b 45 e4             	mov    -0x1c(%rbp),%eax
  402822:	8b 4d e0             	mov    -0x20(%rbp),%ecx
  402825:	01 c8                	add    %ecx,%eax
  402827:	83 c0 01             	add    $0x1,%eax
  40282a:	89 c1                	mov    %eax,%ecx
  40282c:	48 8b 45 c8          	mov    -0x38(%rbp),%rax
  402830:	89 ce                	mov    %ecx,%esi
  402832:	48 89 c7             	mov    %rax,%rdi
  402835:	e8 5a f1 ff ff       	callq  401994 <GetPixelB>
  40283a:	c5 fb 10 4d e8       	vmovsd -0x18(%rbp),%xmm1
  40283f:	c5 f3 58 c0          	vaddsd %xmm0,%xmm1,%xmm0
  402843:	c5 fb 11 45 e8       	vmovsd %xmm0,-0x18(%rbp)
  402848:	83 45 e4 01          	addl   $0x1,-0x1c(%rbp)
  40284c:	0f b6 45 c4          	movzbl -0x3c(%rbp),%eax
  402850:	3b 45 e4             	cmp    -0x1c(%rbp),%eax
  402853:	0f 8f 54 ff ff ff    	jg     4027ad <MotionBlur+0x8e>
  402859:	8b 55 dc             	mov    -0x24(%rbp),%edx
  40285c:	8b 4d e0             	mov    -0x20(%rbp),%ecx
  40285f:	48 8b 45 c8          	mov    -0x38(%rbp),%rax
  402863:	89 ce                	mov    %ecx,%esi
  402865:	48 89 c7             	mov    %rax,%rdi
  402868:	e8 d1 ef ff ff       	callq  40183e <GetPixelR>
  40286d:	c5 fb 10 0d 83 e9 00 	vmovsd 0xe983(%rip),%xmm1        # 4111f8 <__PRETTY_FUNCTION__.3408+0x2c>
  402874:	00 
  402875:	c5 fb 5e c9          	vdivsd %xmm1,%xmm0,%xmm1
  402879:	c5 fb 2a 45 e4       	vcvtsi2sdl -0x1c(%rbp),%xmm0,%xmm0
  40287e:	c5 fb 10 55 f8       	vmovsd -0x8(%rbp),%xmm2
  402883:	c5 eb 5e c0          	vdivsd %xmm0,%xmm2,%xmm0
  402887:	c5 fb 10 15 69 e9 00 	vmovsd 0xe969(%rip),%xmm2        # 4111f8 <__PRETTY_FUNCTION__.3408+0x2c>
  40288e:	00 
  40288f:	c5 fb 5e c2          	vdivsd %xmm2,%xmm0,%xmm0
  402893:	c5 f3 58 c0          	vaddsd %xmm0,%xmm1,%xmm0
  402897:	c5 fb 2c c0          	vcvttsd2si %xmm0,%eax
  40289b:	0f b6 c8             	movzbl %al,%ecx
  40289e:	8b 55 dc             	mov    -0x24(%rbp),%edx
  4028a1:	8b 75 e0             	mov    -0x20(%rbp),%esi
  4028a4:	48 8b 45 c8          	mov    -0x38(%rbp),%rax
  4028a8:	48 89 c7             	mov    %rax,%rdi
  4028ab:	e8 8f f1 ff ff       	callq  401a3f <SetPixelR>
  4028b0:	8b 55 dc             	mov    -0x24(%rbp),%edx
  4028b3:	8b 4d e0             	mov    -0x20(%rbp),%ecx
  4028b6:	48 8b 45 c8          	mov    -0x38(%rbp),%rax
  4028ba:	89 ce                	mov    %ecx,%esi
  4028bc:	48 89 c7             	mov    %rax,%rdi
  4028bf:	e8 25 f0 ff ff       	callq  4018e9 <GetPixelG>
  4028c4:	c5 fb 10 0d 2c e9 00 	vmovsd 0xe92c(%rip),%xmm1        # 4111f8 <__PRETTY_FUNCTION__.3408+0x2c>
  4028cb:	00 
  4028cc:	c5 fb 5e c9          	vdivsd %xmm1,%xmm0,%xmm1
  4028d0:	c5 fb 2a 45 e4       	vcvtsi2sdl -0x1c(%rbp),%xmm0,%xmm0
  4028d5:	c5 fb 10 55 f0       	vmovsd -0x10(%rbp),%xmm2
  4028da:	c5 eb 5e c0          	vdivsd %xmm0,%xmm2,%xmm0
  4028de:	c5 fb 10 15 12 e9 00 	vmovsd 0xe912(%rip),%xmm2        # 4111f8 <__PRETTY_FUNCTION__.3408+0x2c>
  4028e5:	00 
  4028e6:	c5 fb 5e c2          	vdivsd %xmm2,%xmm0,%xmm0
  4028ea:	c5 f3 58 c0          	vaddsd %xmm0,%xmm1,%xmm0
  4028ee:	c5 fb 2c c0          	vcvttsd2si %xmm0,%eax
  4028f2:	0f b6 c8             	movzbl %al,%ecx
  4028f5:	8b 55 dc             	mov    -0x24(%rbp),%edx
  4028f8:	8b 75 e0             	mov    -0x20(%rbp),%esi
  4028fb:	48 8b 45 c8          	mov    -0x38(%rbp),%rax
  4028ff:	48 89 c7             	mov    %rax,%rdi
  402902:	e8 e8 f1 ff ff       	callq  401aef <SetPixelG>
  402907:	8b 55 dc             	mov    -0x24(%rbp),%edx
  40290a:	8b 4d e0             	mov    -0x20(%rbp),%ecx
  40290d:	48 8b 45 c8          	mov    -0x38(%rbp),%rax
  402911:	89 ce                	mov    %ecx,%esi
  402913:	48 89 c7             	mov    %rax,%rdi
  402916:	e8 79 f0 ff ff       	callq  401994 <GetPixelB>
  40291b:	c5 fb 10 0d d5 e8 00 	vmovsd 0xe8d5(%rip),%xmm1        # 4111f8 <__PRETTY_FUNCTION__.3408+0x2c>
  402922:	00 
  402923:	c5 fb 5e c9          	vdivsd %xmm1,%xmm0,%xmm1
  402927:	c5 fb 2a 45 e4       	vcvtsi2sdl -0x1c(%rbp),%xmm0,%xmm0
  40292c:	c5 fb 10 55 e8       	vmovsd -0x18(%rbp),%xmm2
  402931:	c5 eb 5e c0          	vdivsd %xmm0,%xmm2,%xmm0
  402935:	c5 fb 10 15 bb e8 00 	vmovsd 0xe8bb(%rip),%xmm2        # 4111f8 <__PRETTY_FUNCTION__.3408+0x2c>
  40293c:	00 
  40293d:	c5 fb 5e c2          	vdivsd %xmm2,%xmm0,%xmm0
  402941:	c5 f3 58 c0          	vaddsd %xmm0,%xmm1,%xmm0
  402945:	c5 fb 2c c0          	vcvttsd2si %xmm0,%eax
  402949:	0f b6 c8             	movzbl %al,%ecx
  40294c:	8b 55 dc             	mov    -0x24(%rbp),%edx
  40294f:	8b 75 e0             	mov    -0x20(%rbp),%esi
  402952:	48 8b 45 c8          	mov    -0x38(%rbp),%rax
  402956:	48 89 c7             	mov    %rax,%rdi
  402959:	e8 41 f2 ff ff       	callq  401b9f <SetPixelB>
  40295e:	83 45 dc 01          	addl   $0x1,-0x24(%rbp)
  402962:	8b 45 dc             	mov    -0x24(%rbp),%eax
  402965:	3b 45 d8             	cmp    -0x28(%rbp),%eax
  402968:	0f 8c 18 fe ff ff    	jl     402786 <MotionBlur+0x67>
  40296e:	83 45 e0 01          	addl   $0x1,-0x20(%rbp)
  402972:	8b 45 e0             	mov    -0x20(%rbp),%eax
  402975:	3b 45 d4             	cmp    -0x2c(%rbp),%eax
  402978:	0f 8c fc fd ff ff    	jl     40277a <MotionBlur+0x5b>
  40297e:	48 8b 45 c8          	mov    -0x38(%rbp),%rax
  402982:	c9                   	leaveq 
  402983:	c3                   	retq   

0000000000402984 <Edge>:
  402984:	55                   	push   %rbp
  402985:	48 89 e5             	mov    %rsp,%rbp
  402988:	41 57                	push   %r15
  40298a:	41 56                	push   %r14
  40298c:	41 55                	push   %r13
  40298e:	41 54                	push   %r12
  402990:	53                   	push   %rbx
  402991:	48 81 ec 68 01 00 00 	sub    $0x168,%rsp
  402998:	48 89 bd 48 ff ff ff 	mov    %rdi,-0xb8(%rbp)
  40299f:	48 89 e0             	mov    %rsp,%rax
  4029a2:	48 89 85 40 ff ff ff 	mov    %rax,-0xc0(%rbp)
  4029a9:	48 83 bd 48 ff ff ff 	cmpq   $0x0,-0xb8(%rbp)
  4029b0:	00 
  4029b1:	75 19                	jne    4029cc <Edge+0x48>
  4029b3:	b9 28 12 41 00       	mov    $0x411228,%ecx
  4029b8:	ba 17 00 00 00       	mov    $0x17,%edx
  4029bd:	be 00 12 41 00       	mov    $0x411200,%esi
  4029c2:	bf 0b 12 41 00       	mov    $0x41120b,%edi
  4029c7:	e8 a4 e0 ff ff       	callq  400a70 <__assert_fail@plt>
  4029cc:	48 8b 85 48 ff ff ff 	mov    -0xb8(%rbp),%rax
  4029d3:	48 89 c7             	mov    %rax,%rdi
  4029d6:	e8 25 f4 ff ff       	callq  401e00 <ImageHeight>
  4029db:	89 45 b0             	mov    %eax,-0x50(%rbp)
  4029de:	48 8b 85 48 ff ff ff 	mov    -0xb8(%rbp),%rax
  4029e5:	48 89 c7             	mov    %rax,%rdi
  4029e8:	e8 df f3 ff ff       	callq  401dcc <ImageWidth>
  4029ed:	89 45 ac             	mov    %eax,-0x54(%rbp)
  4029f0:	8b 45 ac             	mov    -0x54(%rbp),%eax
  4029f3:	89 c6                	mov    %eax,%esi
  4029f5:	bf 11 12 41 00       	mov    $0x411211,%edi
  4029fa:	b8 00 00 00 00       	mov    $0x0,%eax
  4029ff:	e8 5c e0 ff ff       	callq  400a60 <printf@plt>
  402a04:	8b 45 b0             	mov    -0x50(%rbp),%eax
  402a07:	89 c6                	mov    %eax,%esi
  402a09:	bf 1c 12 41 00       	mov    $0x41121c,%edi
  402a0e:	b8 00 00 00 00       	mov    $0x0,%eax
  402a13:	e8 48 e0 ff ff       	callq  400a60 <printf@plt>
  402a18:	8b 75 b0             	mov    -0x50(%rbp),%esi
  402a1b:	8b 7d ac             	mov    -0x54(%rbp),%edi
  402a1e:	48 63 c6             	movslq %esi,%rax
  402a21:	48 83 e8 01          	sub    $0x1,%rax
  402a25:	48 89 45 a0          	mov    %rax,-0x60(%rbp)
  402a29:	48 63 c6             	movslq %esi,%rax
  402a2c:	48 89 85 30 ff ff ff 	mov    %rax,-0xd0(%rbp)
  402a33:	48 c7 85 38 ff ff ff 	movq   $0x0,-0xc8(%rbp)
  402a3a:	00 00 00 00 
  402a3e:	48 63 c6             	movslq %esi,%rax
  402a41:	48 c1 e0 03          	shl    $0x3,%rax
  402a45:	48 89 85 30 ff ff ff 	mov    %rax,-0xd0(%rbp)
  402a4c:	48 63 c7             	movslq %edi,%rax
  402a4f:	48 83 e8 01          	sub    $0x1,%rax
  402a53:	48 89 45 98          	mov    %rax,-0x68(%rbp)
  402a57:	48 63 c6             	movslq %esi,%rax
  402a5a:	49 89 c6             	mov    %rax,%r14
  402a5d:	41 bf 00 00 00 00    	mov    $0x0,%r15d
  402a63:	48 63 c7             	movslq %edi,%rax
  402a66:	49 89 c4             	mov    %rax,%r12
  402a69:	41 bd 00 00 00 00    	mov    $0x0,%r13d
  402a6f:	4c 89 fa             	mov    %r15,%rdx
  402a72:	49 0f af d4          	imul   %r12,%rdx
  402a76:	4c 89 e8             	mov    %r13,%rax
  402a79:	49 0f af c6          	imul   %r14,%rax
  402a7d:	48 8d 0c 02          	lea    (%rdx,%rax,1),%rcx
  402a81:	4c 89 f0             	mov    %r14,%rax
  402a84:	49 f7 e4             	mul    %r12
  402a87:	48 01 d1             	add    %rdx,%rcx
  402a8a:	48 89 ca             	mov    %rcx,%rdx
  402a8d:	48 63 c6             	movslq %esi,%rax
  402a90:	48 89 85 20 ff ff ff 	mov    %rax,-0xe0(%rbp)
  402a97:	48 c7 85 28 ff ff ff 	movq   $0x0,-0xd8(%rbp)
  402a9e:	00 00 00 00 
  402aa2:	48 63 c7             	movslq %edi,%rax
  402aa5:	48 89 85 10 ff ff ff 	mov    %rax,-0xf0(%rbp)
  402aac:	48 c7 85 18 ff ff ff 	movq   $0x0,-0xe8(%rbp)
  402ab3:	00 00 00 00 
  402ab7:	4c 8b b5 20 ff ff ff 	mov    -0xe0(%rbp),%r14
  402abe:	4c 8b bd 28 ff ff ff 	mov    -0xd8(%rbp),%r15
  402ac5:	4c 89 fa             	mov    %r15,%rdx
  402ac8:	4c 8b 85 10 ff ff ff 	mov    -0xf0(%rbp),%r8
  402acf:	4c 8b 8d 18 ff ff ff 	mov    -0xe8(%rbp),%r9
  402ad6:	49 0f af d0          	imul   %r8,%rdx
  402ada:	4c 89 c8             	mov    %r9,%rax
  402add:	49 0f af c6          	imul   %r14,%rax
  402ae1:	48 8d 0c 02          	lea    (%rdx,%rax,1),%rcx
  402ae5:	4c 89 f0             	mov    %r14,%rax
  402ae8:	49 f7 e0             	mul    %r8
  402aeb:	48 01 d1             	add    %rdx,%rcx
  402aee:	48 89 ca             	mov    %rcx,%rdx
  402af1:	48 63 d6             	movslq %esi,%rdx
  402af4:	48 63 c7             	movslq %edi,%rax
  402af7:	48 0f af c2          	imul   %rdx,%rax
  402afb:	48 c1 e0 03          	shl    $0x3,%rax
  402aff:	48 8d 50 07          	lea    0x7(%rax),%rdx
  402b03:	b8 10 00 00 00       	mov    $0x10,%eax
  402b08:	48 83 e8 01          	sub    $0x1,%rax
  402b0c:	48 01 d0             	add    %rdx,%rax
  402b0f:	bb 10 00 00 00       	mov    $0x10,%ebx
  402b14:	ba 00 00 00 00       	mov    $0x0,%edx
  402b19:	48 f7 f3             	div    %rbx
  402b1c:	48 6b c0 10          	imul   $0x10,%rax,%rax
  402b20:	48 29 c4             	sub    %rax,%rsp
  402b23:	48 89 e0             	mov    %rsp,%rax
  402b26:	48 83 c0 07          	add    $0x7,%rax
  402b2a:	48 c1 e8 03          	shr    $0x3,%rax
  402b2e:	48 c1 e0 03          	shl    $0x3,%rax
  402b32:	48 89 45 90          	mov    %rax,-0x70(%rbp)
  402b36:	8b 75 b0             	mov    -0x50(%rbp),%esi
  402b39:	8b 7d ac             	mov    -0x54(%rbp),%edi
  402b3c:	48 63 c6             	movslq %esi,%rax
  402b3f:	48 83 e8 01          	sub    $0x1,%rax
  402b43:	48 89 45 88          	mov    %rax,-0x78(%rbp)
  402b47:	48 63 c6             	movslq %esi,%rax
  402b4a:	48 89 85 80 fe ff ff 	mov    %rax,-0x180(%rbp)
  402b51:	48 c7 85 88 fe ff ff 	movq   $0x0,-0x178(%rbp)
  402b58:	00 00 00 00 
  402b5c:	48 63 c6             	movslq %esi,%rax
  402b5f:	4c 8d 2c c5 00 00 00 	lea    0x0(,%rax,8),%r13
  402b66:	00 
  402b67:	48 63 c7             	movslq %edi,%rax
  402b6a:	48 83 e8 01          	sub    $0x1,%rax
  402b6e:	48 89 45 80          	mov    %rax,-0x80(%rbp)
  402b72:	48 63 c6             	movslq %esi,%rax
  402b75:	48 89 85 00 ff ff ff 	mov    %rax,-0x100(%rbp)
  402b7c:	48 c7 85 08 ff ff ff 	movq   $0x0,-0xf8(%rbp)
  402b83:	00 00 00 00 
  402b87:	48 63 c7             	movslq %edi,%rax
  402b8a:	48 89 85 f0 fe ff ff 	mov    %rax,-0x110(%rbp)
  402b91:	48 c7 85 f8 fe ff ff 	movq   $0x0,-0x108(%rbp)
  402b98:	00 00 00 00 
  402b9c:	4c 8b 85 00 ff ff ff 	mov    -0x100(%rbp),%r8
  402ba3:	4c 8b 8d 08 ff ff ff 	mov    -0xf8(%rbp),%r9
  402baa:	4c 89 ca             	mov    %r9,%rdx
  402bad:	4c 8b 95 f0 fe ff ff 	mov    -0x110(%rbp),%r10
  402bb4:	4c 8b 9d f8 fe ff ff 	mov    -0x108(%rbp),%r11
  402bbb:	49 0f af d2          	imul   %r10,%rdx
  402bbf:	4c 89 d8             	mov    %r11,%rax
  402bc2:	49 0f af c0          	imul   %r8,%rax
  402bc6:	48 8d 0c 02          	lea    (%rdx,%rax,1),%rcx
  402bca:	4c 89 c0             	mov    %r8,%rax
  402bcd:	49 f7 e2             	mul    %r10
  402bd0:	48 01 d1             	add    %rdx,%rcx
  402bd3:	48 89 ca             	mov    %rcx,%rdx
  402bd6:	48 63 c6             	movslq %esi,%rax
  402bd9:	48 89 85 e0 fe ff ff 	mov    %rax,-0x120(%rbp)
  402be0:	48 c7 85 e8 fe ff ff 	movq   $0x0,-0x118(%rbp)
  402be7:	00 00 00 00 
  402beb:	48 63 c7             	movslq %edi,%rax
  402bee:	48 89 85 d0 fe ff ff 	mov    %rax,-0x130(%rbp)
  402bf5:	48 c7 85 d8 fe ff ff 	movq   $0x0,-0x128(%rbp)
  402bfc:	00 00 00 00 
  402c00:	4c 8b 95 e0 fe ff ff 	mov    -0x120(%rbp),%r10
  402c07:	4c 8b 9d e8 fe ff ff 	mov    -0x118(%rbp),%r11
  402c0e:	4c 89 da             	mov    %r11,%rdx
  402c11:	4c 8b b5 d0 fe ff ff 	mov    -0x130(%rbp),%r14
  402c18:	4c 8b bd d8 fe ff ff 	mov    -0x128(%rbp),%r15
  402c1f:	49 0f af d6          	imul   %r14,%rdx
  402c23:	4c 89 f8             	mov    %r15,%rax
  402c26:	49 0f af c2          	imul   %r10,%rax
  402c2a:	48 8d 0c 02          	lea    (%rdx,%rax,1),%rcx
  402c2e:	4c 89 d0             	mov    %r10,%rax
  402c31:	49 f7 e6             	mul    %r14
  402c34:	48 01 d1             	add    %rdx,%rcx
  402c37:	48 89 ca             	mov    %rcx,%rdx
  402c3a:	48 63 d6             	movslq %esi,%rdx
  402c3d:	48 63 c7             	movslq %edi,%rax
  402c40:	48 0f af c2          	imul   %rdx,%rax
  402c44:	48 c1 e0 03          	shl    $0x3,%rax
  402c48:	48 8d 50 07          	lea    0x7(%rax),%rdx
  402c4c:	b8 10 00 00 00       	mov    $0x10,%eax
  402c51:	48 83 e8 01          	sub    $0x1,%rax
  402c55:	48 01 d0             	add    %rdx,%rax
  402c58:	bb 10 00 00 00       	mov    $0x10,%ebx
  402c5d:	ba 00 00 00 00       	mov    $0x0,%edx
  402c62:	48 f7 f3             	div    %rbx
  402c65:	48 6b c0 10          	imul   $0x10,%rax,%rax
  402c69:	48 29 c4             	sub    %rax,%rsp
  402c6c:	48 89 e0             	mov    %rsp,%rax
  402c6f:	48 83 c0 07          	add    $0x7,%rax
  402c73:	48 c1 e8 03          	shr    $0x3,%rax
  402c77:	48 c1 e0 03          	shl    $0x3,%rax
  402c7b:	48 89 85 78 ff ff ff 	mov    %rax,-0x88(%rbp)
  402c82:	8b 75 b0             	mov    -0x50(%rbp),%esi
  402c85:	8b 7d ac             	mov    -0x54(%rbp),%edi
  402c88:	48 63 c6             	movslq %esi,%rax
  402c8b:	48 83 e8 01          	sub    $0x1,%rax
  402c8f:	48 89 85 70 ff ff ff 	mov    %rax,-0x90(%rbp)
  402c96:	48 63 c6             	movslq %esi,%rax
  402c99:	48 89 85 70 fe ff ff 	mov    %rax,-0x190(%rbp)
  402ca0:	48 c7 85 78 fe ff ff 	movq   $0x0,-0x188(%rbp)
  402ca7:	00 00 00 00 
  402cab:	48 63 c6             	movslq %esi,%rax
  402cae:	4c 8d 24 c5 00 00 00 	lea    0x0(,%rax,8),%r12
  402cb5:	00 
  402cb6:	48 63 c7             	movslq %edi,%rax
  402cb9:	48 83 e8 01          	sub    $0x1,%rax
  402cbd:	48 89 85 68 ff ff ff 	mov    %rax,-0x98(%rbp)
  402cc4:	48 63 c6             	movslq %esi,%rax
  402cc7:	48 89 85 c0 fe ff ff 	mov    %rax,-0x140(%rbp)
  402cce:	48 c7 85 c8 fe ff ff 	movq   $0x0,-0x138(%rbp)
  402cd5:	00 00 00 00 
  402cd9:	48 63 c7             	movslq %edi,%rax
  402cdc:	48 89 85 b0 fe ff ff 	mov    %rax,-0x150(%rbp)
  402ce3:	48 c7 85 b8 fe ff ff 	movq   $0x0,-0x148(%rbp)
  402cea:	00 00 00 00 
  402cee:	4c 8b b5 c0 fe ff ff 	mov    -0x140(%rbp),%r14
  402cf5:	4c 8b bd c8 fe ff ff 	mov    -0x138(%rbp),%r15
  402cfc:	4c 89 fa             	mov    %r15,%rdx
  402cff:	4c 8b 85 b0 fe ff ff 	mov    -0x150(%rbp),%r8
  402d06:	4c 8b 8d b8 fe ff ff 	mov    -0x148(%rbp),%r9
  402d0d:	49 0f af d0          	imul   %r8,%rdx
  402d11:	4c 89 c8             	mov    %r9,%rax
  402d14:	49 0f af c6          	imul   %r14,%rax
  402d18:	48 8d 0c 02          	lea    (%rdx,%rax,1),%rcx
  402d1c:	4c 89 f0             	mov    %r14,%rax
  402d1f:	49 f7 e0             	mul    %r8
  402d22:	48 01 d1             	add    %rdx,%rcx
  402d25:	48 89 ca             	mov    %rcx,%rdx
  402d28:	48 63 c6             	movslq %esi,%rax
  402d2b:	48 89 85 a0 fe ff ff 	mov    %rax,-0x160(%rbp)
  402d32:	48 c7 85 a8 fe ff ff 	movq   $0x0,-0x158(%rbp)
  402d39:	00 00 00 00 
  402d3d:	48 63 c7             	movslq %edi,%rax
  402d40:	48 89 85 90 fe ff ff 	mov    %rax,-0x170(%rbp)
  402d47:	48 c7 85 98 fe ff ff 	movq   $0x0,-0x168(%rbp)
  402d4e:	00 00 00 00 
  402d52:	4c 8b 85 a0 fe ff ff 	mov    -0x160(%rbp),%r8
  402d59:	4c 8b 8d a8 fe ff ff 	mov    -0x158(%rbp),%r9
  402d60:	4c 89 ca             	mov    %r9,%rdx
  402d63:	4c 8b 95 90 fe ff ff 	mov    -0x170(%rbp),%r10
  402d6a:	4c 8b 9d 98 fe ff ff 	mov    -0x168(%rbp),%r11
  402d71:	49 0f af d2          	imul   %r10,%rdx
  402d75:	4c 89 d8             	mov    %r11,%rax
  402d78:	49 0f af c0          	imul   %r8,%rax
  402d7c:	48 8d 0c 02          	lea    (%rdx,%rax,1),%rcx
  402d80:	4c 89 c0             	mov    %r8,%rax
  402d83:	49 f7 e2             	mul    %r10
  402d86:	48 01 d1             	add    %rdx,%rcx
  402d89:	48 89 ca             	mov    %rcx,%rdx
  402d8c:	48 63 d6             	movslq %esi,%rdx
  402d8f:	48 63 c7             	movslq %edi,%rax
  402d92:	48 0f af c2          	imul   %rdx,%rax
  402d96:	48 c1 e0 03          	shl    $0x3,%rax
  402d9a:	48 8d 50 07          	lea    0x7(%rax),%rdx
  402d9e:	b8 10 00 00 00       	mov    $0x10,%eax
  402da3:	48 83 e8 01          	sub    $0x1,%rax
  402da7:	48 01 d0             	add    %rdx,%rax
  402daa:	bb 10 00 00 00       	mov    $0x10,%ebx
  402daf:	ba 00 00 00 00       	mov    $0x0,%edx
  402db4:	48 f7 f3             	div    %rbx
  402db7:	48 6b c0 10          	imul   $0x10,%rax,%rax
  402dbb:	48 29 c4             	sub    %rax,%rsp
  402dbe:	48 89 e0             	mov    %rsp,%rax
  402dc1:	48 83 c0 07          	add    $0x7,%rax
  402dc5:	48 c1 e8 03          	shr    $0x3,%rax
  402dc9:	48 c1 e0 03          	shl    $0x3,%rax
  402dcd:	48 89 85 60 ff ff ff 	mov    %rax,-0xa0(%rbp)
  402dd4:	c7 45 c8 00 00 00 00 	movl   $0x0,-0x38(%rbp)
  402ddb:	e9 02 01 00 00       	jmpq   402ee2 <Edge+0x55e>
  402de0:	c7 45 cc 00 00 00 00 	movl   $0x0,-0x34(%rbp)
  402de7:	e9 e6 00 00 00       	jmpq   402ed2 <Edge+0x54e>
  402dec:	48 8b 9d 30 ff ff ff 	mov    -0xd0(%rbp),%rbx
  402df3:	48 c1 eb 03          	shr    $0x3,%rbx
  402df7:	8b 55 c8             	mov    -0x38(%rbp),%edx
  402dfa:	8b 4d cc             	mov    -0x34(%rbp),%ecx
  402dfd:	48 8b 85 48 ff ff ff 	mov    -0xb8(%rbp),%rax
  402e04:	89 ce                	mov    %ecx,%esi
  402e06:	48 89 c7             	mov    %rax,%rdi
  402e09:	e8 30 ea ff ff       	callq  40183e <GetPixelR>
  402e0e:	c5 fb 11 85 20 ff ff 	vmovsd %xmm0,-0xe0(%rbp)
  402e15:	ff 
  402e16:	48 8b 85 20 ff ff ff 	mov    -0xe0(%rbp),%rax
  402e1d:	48 8b 55 90          	mov    -0x70(%rbp),%rdx
  402e21:	8b 4d c8             	mov    -0x38(%rbp),%ecx
  402e24:	48 63 f1             	movslq %ecx,%rsi
  402e27:	8b 4d cc             	mov    -0x34(%rbp),%ecx
  402e2a:	48 63 c9             	movslq %ecx,%rcx
  402e2d:	48 0f af cb          	imul   %rbx,%rcx
  402e31:	48 01 f1             	add    %rsi,%rcx
  402e34:	48 89 04 ca          	mov    %rax,(%rdx,%rcx,8)
  402e38:	4c 89 eb             	mov    %r13,%rbx
  402e3b:	48 c1 eb 03          	shr    $0x3,%rbx
  402e3f:	8b 55 c8             	mov    -0x38(%rbp),%edx
  402e42:	8b 4d cc             	mov    -0x34(%rbp),%ecx
  402e45:	48 8b 85 48 ff ff ff 	mov    -0xb8(%rbp),%rax
  402e4c:	89 ce                	mov    %ecx,%esi
  402e4e:	48 89 c7             	mov    %rax,%rdi
  402e51:	e8 93 ea ff ff       	callq  4018e9 <GetPixelG>
  402e56:	c5 fb 11 85 20 ff ff 	vmovsd %xmm0,-0xe0(%rbp)
  402e5d:	ff 
  402e5e:	48 8b 85 20 ff ff ff 	mov    -0xe0(%rbp),%rax
  402e65:	48 8b 95 78 ff ff ff 	mov    -0x88(%rbp),%rdx
  402e6c:	8b 4d c8             	mov    -0x38(%rbp),%ecx
  402e6f:	48 63 f1             	movslq %ecx,%rsi
  402e72:	8b 4d cc             	mov    -0x34(%rbp),%ecx
  402e75:	48 63 c9             	movslq %ecx,%rcx
  402e78:	48 0f af cb          	imul   %rbx,%rcx
  402e7c:	48 01 f1             	add    %rsi,%rcx
  402e7f:	48 89 04 ca          	mov    %rax,(%rdx,%rcx,8)
  402e83:	4c 89 e3             	mov    %r12,%rbx
  402e86:	48 c1 eb 03          	shr    $0x3,%rbx
  402e8a:	8b 55 c8             	mov    -0x38(%rbp),%edx
  402e8d:	8b 4d cc             	mov    -0x34(%rbp),%ecx
  402e90:	48 8b 85 48 ff ff ff 	mov    -0xb8(%rbp),%rax
  402e97:	89 ce                	mov    %ecx,%esi
  402e99:	48 89 c7             	mov    %rax,%rdi
  402e9c:	e8 f3 ea ff ff       	callq  401994 <GetPixelB>
  402ea1:	c5 fb 11 85 20 ff ff 	vmovsd %xmm0,-0xe0(%rbp)
  402ea8:	ff 
  402ea9:	48 8b 85 20 ff ff ff 	mov    -0xe0(%rbp),%rax
  402eb0:	48 8b 95 60 ff ff ff 	mov    -0xa0(%rbp),%rdx
  402eb7:	8b 4d c8             	mov    -0x38(%rbp),%ecx
  402eba:	48 63 f1             	movslq %ecx,%rsi
  402ebd:	8b 4d cc             	mov    -0x34(%rbp),%ecx
  402ec0:	48 63 c9             	movslq %ecx,%rcx
  402ec3:	48 0f af cb          	imul   %rbx,%rcx
  402ec7:	48 01 f1             	add    %rsi,%rcx
  402eca:	48 89 04 ca          	mov    %rax,(%rdx,%rcx,8)
  402ece:	83 45 cc 01          	addl   $0x1,-0x34(%rbp)
  402ed2:	8b 45 cc             	mov    -0x34(%rbp),%eax
  402ed5:	3b 45 ac             	cmp    -0x54(%rbp),%eax
  402ed8:	0f 8c 0e ff ff ff    	jl     402dec <Edge+0x468>
  402ede:	83 45 c8 01          	addl   $0x1,-0x38(%rbp)
  402ee2:	8b 45 c8             	mov    -0x38(%rbp),%eax
  402ee5:	3b 45 b0             	cmp    -0x50(%rbp),%eax
  402ee8:	0f 8c f2 fe ff ff    	jl     402de0 <Edge+0x45c>
  402eee:	c7 45 bc 00 00 00 00 	movl   $0x0,-0x44(%rbp)
  402ef5:	c7 45 b8 00 00 00 00 	movl   $0x0,-0x48(%rbp)
  402efc:	c7 45 b4 00 00 00 00 	movl   $0x0,-0x4c(%rbp)
  402f03:	c7 45 c8 01 00 00 00 	movl   $0x1,-0x38(%rbp)
  402f0a:	e9 55 02 00 00       	jmpq   403164 <Edge+0x7e0>
  402f0f:	c7 45 cc 01 00 00 00 	movl   $0x1,-0x34(%rbp)
  402f16:	e9 36 02 00 00       	jmpq   403151 <Edge+0x7cd>
  402f1b:	c7 45 c0 ff ff ff ff 	movl   $0xffffffff,-0x40(%rbp)
  402f22:	e9 6d 01 00 00       	jmpq   403094 <Edge+0x710>
  402f27:	c7 45 c4 ff ff ff ff 	movl   $0xffffffff,-0x3c(%rbp)
  402f2e:	e9 53 01 00 00       	jmpq   403086 <Edge+0x702>
  402f33:	8b 45 c4             	mov    -0x3c(%rbp),%eax
  402f36:	8b 55 cc             	mov    -0x34(%rbp),%edx
  402f39:	01 d0                	add    %edx,%eax
  402f3b:	89 85 5c ff ff ff    	mov    %eax,-0xa4(%rbp)
  402f41:	8b 45 c0             	mov    -0x40(%rbp),%eax
  402f44:	8b 55 c8             	mov    -0x38(%rbp),%edx
  402f47:	01 d0                	add    %edx,%eax
  402f49:	89 85 58 ff ff ff    	mov    %eax,-0xa8(%rbp)
  402f4f:	c5 f3 2a 4d bc       	vcvtsi2sdl -0x44(%rbp),%xmm1,%xmm1
  402f54:	48 8b 9d 30 ff ff ff 	mov    -0xd0(%rbp),%rbx
  402f5b:	48 89 de             	mov    %rbx,%rsi
  402f5e:	48 c1 ee 03          	shr    $0x3,%rsi
  402f62:	48 8b 45 90          	mov    -0x70(%rbp),%rax
  402f66:	8b 55 c8             	mov    -0x38(%rbp),%edx
  402f69:	48 63 ca             	movslq %edx,%rcx
  402f6c:	8b 55 cc             	mov    -0x34(%rbp),%edx
  402f6f:	48 63 d2             	movslq %edx,%rdx
  402f72:	48 0f af d6          	imul   %rsi,%rdx
  402f76:	48 01 ca             	add    %rcx,%rdx
  402f79:	c5 fb 10 04 d0       	vmovsd (%rax,%rdx,8),%xmm0
  402f7e:	48 89 de             	mov    %rbx,%rsi
  402f81:	48 c1 ee 03          	shr    $0x3,%rsi
  402f85:	48 8b 45 90          	mov    -0x70(%rbp),%rax
  402f89:	8b 95 58 ff ff ff    	mov    -0xa8(%rbp),%edx
  402f8f:	48 63 ca             	movslq %edx,%rcx
  402f92:	8b 95 5c ff ff ff    	mov    -0xa4(%rbp),%edx
  402f98:	48 63 d2             	movslq %edx,%rdx
  402f9b:	48 0f af d6          	imul   %rsi,%rdx
  402f9f:	48 01 ca             	add    %rcx,%rdx
  402fa2:	c5 fb 10 14 d0       	vmovsd (%rax,%rdx,8),%xmm2
  402fa7:	c5 fb 5c c2          	vsubsd %xmm2,%xmm0,%xmm0
  402fab:	c5 f3 58 c0          	vaddsd %xmm0,%xmm1,%xmm0
  402faf:	c5 fb 2c c0          	vcvttsd2si %xmm0,%eax
  402fb3:	89 45 bc             	mov    %eax,-0x44(%rbp)
  402fb6:	c5 f3 2a 4d b8       	vcvtsi2sdl -0x48(%rbp),%xmm1,%xmm1
  402fbb:	4c 89 ee             	mov    %r13,%rsi
  402fbe:	48 c1 ee 03          	shr    $0x3,%rsi
  402fc2:	48 8b 85 78 ff ff ff 	mov    -0x88(%rbp),%rax
  402fc9:	8b 55 c8             	mov    -0x38(%rbp),%edx
  402fcc:	48 63 ca             	movslq %edx,%rcx
  402fcf:	8b 55 cc             	mov    -0x34(%rbp),%edx
  402fd2:	48 63 d2             	movslq %edx,%rdx
  402fd5:	48 0f af d6          	imul   %rsi,%rdx
  402fd9:	48 01 ca             	add    %rcx,%rdx
  402fdc:	c5 fb 10 04 d0       	vmovsd (%rax,%rdx,8),%xmm0
  402fe1:	4c 89 ee             	mov    %r13,%rsi
  402fe4:	48 c1 ee 03          	shr    $0x3,%rsi
  402fe8:	48 8b 85 78 ff ff ff 	mov    -0x88(%rbp),%rax
  402fef:	8b 95 58 ff ff ff    	mov    -0xa8(%rbp),%edx
  402ff5:	48 63 ca             	movslq %edx,%rcx
  402ff8:	8b 95 5c ff ff ff    	mov    -0xa4(%rbp),%edx
  402ffe:	48 63 d2             	movslq %edx,%rdx
  403001:	48 0f af d6          	imul   %rsi,%rdx
  403005:	48 01 ca             	add    %rcx,%rdx
  403008:	c5 fb 10 14 d0       	vmovsd (%rax,%rdx,8),%xmm2
  40300d:	c5 fb 5c c2          	vsubsd %xmm2,%xmm0,%xmm0
  403011:	c5 f3 58 c0          	vaddsd %xmm0,%xmm1,%xmm0
  403015:	c5 fb 2c c0          	vcvttsd2si %xmm0,%eax
  403019:	89 45 b8             	mov    %eax,-0x48(%rbp)
  40301c:	c5 f3 2a 4d b4       	vcvtsi2sdl -0x4c(%rbp),%xmm1,%xmm1
  403021:	4c 89 e6             	mov    %r12,%rsi
  403024:	48 c1 ee 03          	shr    $0x3,%rsi
  403028:	48 8b 85 60 ff ff ff 	mov    -0xa0(%rbp),%rax
  40302f:	8b 55 c8             	mov    -0x38(%rbp),%edx
  403032:	48 63 ca             	movslq %edx,%rcx
  403035:	8b 55 cc             	mov    -0x34(%rbp),%edx
  403038:	48 63 d2             	movslq %edx,%rdx
  40303b:	48 0f af d6          	imul   %rsi,%rdx
  40303f:	48 01 ca             	add    %rcx,%rdx
  403042:	c5 fb 10 04 d0       	vmovsd (%rax,%rdx,8),%xmm0
  403047:	4c 89 e6             	mov    %r12,%rsi
  40304a:	48 c1 ee 03          	shr    $0x3,%rsi
  40304e:	48 8b 85 60 ff ff ff 	mov    -0xa0(%rbp),%rax
  403055:	8b 95 58 ff ff ff    	mov    -0xa8(%rbp),%edx
  40305b:	48 63 ca             	movslq %edx,%rcx
  40305e:	8b 95 5c ff ff ff    	mov    -0xa4(%rbp),%edx
  403064:	48 63 d2             	movslq %edx,%rdx
  403067:	48 0f af d6          	imul   %rsi,%rdx
  40306b:	48 01 ca             	add    %rcx,%rdx
  40306e:	c5 fb 10 14 d0       	vmovsd (%rax,%rdx,8),%xmm2
  403073:	c5 fb 5c c2          	vsubsd %xmm2,%xmm0,%xmm0
  403077:	c5 f3 58 c0          	vaddsd %xmm0,%xmm1,%xmm0
  40307b:	c5 fb 2c c0          	vcvttsd2si %xmm0,%eax
  40307f:	89 45 b4             	mov    %eax,-0x4c(%rbp)
  403082:	83 45 c4 01          	addl   $0x1,-0x3c(%rbp)
  403086:	83 7d c4 01          	cmpl   $0x1,-0x3c(%rbp)
  40308a:	0f 8e a3 fe ff ff    	jle    402f33 <Edge+0x5af>
  403090:	83 45 c0 01          	addl   $0x1,-0x40(%rbp)
  403094:	83 7d c0 01          	cmpl   $0x1,-0x40(%rbp)
  403098:	0f 8e 89 fe ff ff    	jle    402f27 <Edge+0x5a3>
  40309e:	81 7d bc ff 00 00 00 	cmpl   $0xff,-0x44(%rbp)
  4030a5:	7f 12                	jg     4030b9 <Edge+0x735>
  4030a7:	b8 00 00 00 00       	mov    $0x0,%eax
  4030ac:	83 7d bc 00          	cmpl   $0x0,-0x44(%rbp)
  4030b0:	0f 49 45 bc          	cmovns -0x44(%rbp),%eax
  4030b4:	0f b6 c0             	movzbl %al,%eax
  4030b7:	eb 05                	jmp    4030be <Edge+0x73a>
  4030b9:	b8 ff 00 00 00       	mov    $0xff,%eax
  4030be:	8b 55 c8             	mov    -0x38(%rbp),%edx
  4030c1:	8b 75 cc             	mov    -0x34(%rbp),%esi
  4030c4:	48 8b bd 48 ff ff ff 	mov    -0xb8(%rbp),%rdi
  4030cb:	89 c1                	mov    %eax,%ecx
  4030cd:	e8 6d e9 ff ff       	callq  401a3f <SetPixelR>
  4030d2:	81 7d b8 ff 00 00 00 	cmpl   $0xff,-0x48(%rbp)
  4030d9:	7f 12                	jg     4030ed <Edge+0x769>
  4030db:	b8 00 00 00 00       	mov    $0x0,%eax
  4030e0:	83 7d b8 00          	cmpl   $0x0,-0x48(%rbp)
  4030e4:	0f 49 45 b8          	cmovns -0x48(%rbp),%eax
  4030e8:	0f b6 c0             	movzbl %al,%eax
  4030eb:	eb 05                	jmp    4030f2 <Edge+0x76e>
  4030ed:	b8 ff 00 00 00       	mov    $0xff,%eax
  4030f2:	8b 55 c8             	mov    -0x38(%rbp),%edx
  4030f5:	8b 75 cc             	mov    -0x34(%rbp),%esi
  4030f8:	48 8b bd 48 ff ff ff 	mov    -0xb8(%rbp),%rdi
  4030ff:	89 c1                	mov    %eax,%ecx
  403101:	e8 e9 e9 ff ff       	callq  401aef <SetPixelG>
  403106:	81 7d b4 ff 00 00 00 	cmpl   $0xff,-0x4c(%rbp)
  40310d:	7f 12                	jg     403121 <Edge+0x79d>
  40310f:	b8 00 00 00 00       	mov    $0x0,%eax
  403114:	83 7d b4 00          	cmpl   $0x0,-0x4c(%rbp)
  403118:	0f 49 45 b4          	cmovns -0x4c(%rbp),%eax
  40311c:	0f b6 c0             	movzbl %al,%eax
  40311f:	eb 05                	jmp    403126 <Edge+0x7a2>
  403121:	b8 ff 00 00 00       	mov    $0xff,%eax
  403126:	8b 55 c8             	mov    -0x38(%rbp),%edx
  403129:	8b 75 cc             	mov    -0x34(%rbp),%esi
  40312c:	48 8b bd 48 ff ff ff 	mov    -0xb8(%rbp),%rdi
  403133:	89 c1                	mov    %eax,%ecx
  403135:	e8 65 ea ff ff       	callq  401b9f <SetPixelB>
  40313a:	c7 45 b4 00 00 00 00 	movl   $0x0,-0x4c(%rbp)
  403141:	8b 45 b4             	mov    -0x4c(%rbp),%eax
  403144:	89 45 b8             	mov    %eax,-0x48(%rbp)
  403147:	8b 45 b8             	mov    -0x48(%rbp),%eax
  40314a:	89 45 bc             	mov    %eax,-0x44(%rbp)
  40314d:	83 45 cc 01          	addl   $0x1,-0x34(%rbp)
  403151:	8b 45 ac             	mov    -0x54(%rbp),%eax
  403154:	83 e8 02             	sub    $0x2,%eax
  403157:	3b 45 cc             	cmp    -0x34(%rbp),%eax
  40315a:	0f 8f bb fd ff ff    	jg     402f1b <Edge+0x597>
  403160:	83 45 c8 01          	addl   $0x1,-0x38(%rbp)
  403164:	8b 45 b0             	mov    -0x50(%rbp),%eax
  403167:	83 e8 02             	sub    $0x2,%eax
  40316a:	3b 45 c8             	cmp    -0x38(%rbp),%eax
  40316d:	0f 8f 9c fd ff ff    	jg     402f0f <Edge+0x58b>
  403173:	c7 45 c8 00 00 00 00 	movl   $0x0,-0x38(%rbp)
  40317a:	e9 b5 00 00 00       	jmpq   403234 <Edge+0x8b0>
  40317f:	8b 55 c8             	mov    -0x38(%rbp),%edx
  403182:	48 8b 85 48 ff ff ff 	mov    -0xb8(%rbp),%rax
  403189:	b9 00 00 00 00       	mov    $0x0,%ecx
  40318e:	be 00 00 00 00       	mov    $0x0,%esi
  403193:	48 89 c7             	mov    %rax,%rdi
  403196:	e8 a4 e8 ff ff       	callq  401a3f <SetPixelR>
  40319b:	8b 55 c8             	mov    -0x38(%rbp),%edx
  40319e:	48 8b 85 48 ff ff ff 	mov    -0xb8(%rbp),%rax
  4031a5:	b9 00 00 00 00       	mov    $0x0,%ecx
  4031aa:	be 00 00 00 00       	mov    $0x0,%esi
  4031af:	48 89 c7             	mov    %rax,%rdi
  4031b2:	e8 38 e9 ff ff       	callq  401aef <SetPixelG>
  4031b7:	8b 55 c8             	mov    -0x38(%rbp),%edx
  4031ba:	48 8b 85 48 ff ff ff 	mov    -0xb8(%rbp),%rax
  4031c1:	b9 00 00 00 00       	mov    $0x0,%ecx
  4031c6:	be 00 00 00 00       	mov    $0x0,%esi
  4031cb:	48 89 c7             	mov    %rax,%rdi
  4031ce:	e8 cc e9 ff ff       	callq  401b9f <SetPixelB>
  4031d3:	8b 55 c8             	mov    -0x38(%rbp),%edx
  4031d6:	8b 45 ac             	mov    -0x54(%rbp),%eax
  4031d9:	83 e8 01             	sub    $0x1,%eax
  4031dc:	89 c6                	mov    %eax,%esi
  4031de:	48 8b 85 48 ff ff ff 	mov    -0xb8(%rbp),%rax
  4031e5:	b9 00 00 00 00       	mov    $0x0,%ecx
  4031ea:	48 89 c7             	mov    %rax,%rdi
  4031ed:	e8 4d e8 ff ff       	callq  401a3f <SetPixelR>
  4031f2:	8b 55 c8             	mov    -0x38(%rbp),%edx
  4031f5:	8b 45 ac             	mov    -0x54(%rbp),%eax
  4031f8:	83 e8 01             	sub    $0x1,%eax
  4031fb:	89 c6                	mov    %eax,%esi
  4031fd:	48 8b 85 48 ff ff ff 	mov    -0xb8(%rbp),%rax
  403204:	b9 00 00 00 00       	mov    $0x0,%ecx
  403209:	48 89 c7             	mov    %rax,%rdi
  40320c:	e8 de e8 ff ff       	callq  401aef <SetPixelG>
  403211:	8b 55 c8             	mov    -0x38(%rbp),%edx
  403214:	8b 45 ac             	mov    -0x54(%rbp),%eax
  403217:	83 e8 01             	sub    $0x1,%eax
  40321a:	89 c6                	mov    %eax,%esi
  40321c:	48 8b 85 48 ff ff ff 	mov    -0xb8(%rbp),%rax
  403223:	b9 00 00 00 00       	mov    $0x0,%ecx
  403228:	48 89 c7             	mov    %rax,%rdi
  40322b:	e8 6f e9 ff ff       	callq  401b9f <SetPixelB>
  403230:	83 45 c8 01          	addl   $0x1,-0x38(%rbp)
  403234:	8b 45 c8             	mov    -0x38(%rbp),%eax
  403237:	3b 45 b0             	cmp    -0x50(%rbp),%eax
  40323a:	0f 8c 3f ff ff ff    	jl     40317f <Edge+0x7fb>
  403240:	c7 45 cc 00 00 00 00 	movl   $0x0,-0x34(%rbp)
  403247:	e9 b5 00 00 00       	jmpq   403301 <Edge+0x97d>
  40324c:	8b 75 cc             	mov    -0x34(%rbp),%esi
  40324f:	48 8b 85 48 ff ff ff 	mov    -0xb8(%rbp),%rax
  403256:	b9 00 00 00 00       	mov    $0x0,%ecx
  40325b:	ba 00 00 00 00       	mov    $0x0,%edx
  403260:	48 89 c7             	mov    %rax,%rdi
  403263:	e8 d7 e7 ff ff       	callq  401a3f <SetPixelR>
  403268:	8b 75 cc             	mov    -0x34(%rbp),%esi
  40326b:	48 8b 85 48 ff ff ff 	mov    -0xb8(%rbp),%rax
  403272:	b9 00 00 00 00       	mov    $0x0,%ecx
  403277:	ba 00 00 00 00       	mov    $0x0,%edx
  40327c:	48 89 c7             	mov    %rax,%rdi
  40327f:	e8 6b e8 ff ff       	callq  401aef <SetPixelG>
  403284:	8b 75 cc             	mov    -0x34(%rbp),%esi
  403287:	48 8b 85 48 ff ff ff 	mov    -0xb8(%rbp),%rax
  40328e:	b9 00 00 00 00       	mov    $0x0,%ecx
  403293:	ba 00 00 00 00       	mov    $0x0,%edx
  403298:	48 89 c7             	mov    %rax,%rdi
  40329b:	e8 ff e8 ff ff       	callq  401b9f <SetPixelB>
  4032a0:	8b 45 b0             	mov    -0x50(%rbp),%eax
  4032a3:	83 e8 01             	sub    $0x1,%eax
  4032a6:	89 c2                	mov    %eax,%edx
  4032a8:	8b 75 cc             	mov    -0x34(%rbp),%esi
  4032ab:	48 8b 85 48 ff ff ff 	mov    -0xb8(%rbp),%rax
  4032b2:	b9 00 00 00 00       	mov    $0x0,%ecx
  4032b7:	48 89 c7             	mov    %rax,%rdi
  4032ba:	e8 80 e7 ff ff       	callq  401a3f <SetPixelR>
  4032bf:	8b 45 b0             	mov    -0x50(%rbp),%eax
  4032c2:	83 e8 01             	sub    $0x1,%eax
  4032c5:	89 c2                	mov    %eax,%edx
  4032c7:	8b 75 cc             	mov    -0x34(%rbp),%esi
  4032ca:	48 8b 85 48 ff ff ff 	mov    -0xb8(%rbp),%rax
  4032d1:	b9 00 00 00 00       	mov    $0x0,%ecx
  4032d6:	48 89 c7             	mov    %rax,%rdi
  4032d9:	e8 11 e8 ff ff       	callq  401aef <SetPixelG>
  4032de:	8b 45 b0             	mov    -0x50(%rbp),%eax
  4032e1:	83 e8 01             	sub    $0x1,%eax
  4032e4:	89 c2                	mov    %eax,%edx
  4032e6:	8b 75 cc             	mov    -0x34(%rbp),%esi
  4032e9:	48 8b 85 48 ff ff ff 	mov    -0xb8(%rbp),%rax
  4032f0:	b9 00 00 00 00       	mov    $0x0,%ecx
  4032f5:	48 89 c7             	mov    %rax,%rdi
  4032f8:	e8 a2 e8 ff ff       	callq  401b9f <SetPixelB>
  4032fd:	83 45 cc 01          	addl   $0x1,-0x34(%rbp)
  403301:	8b 45 cc             	mov    -0x34(%rbp),%eax
  403304:	3b 45 ac             	cmp    -0x54(%rbp),%eax
  403307:	0f 8c 3f ff ff ff    	jl     40324c <Edge+0x8c8>
  40330d:	48 8b 85 48 ff ff ff 	mov    -0xb8(%rbp),%rax
  403314:	48 8b a5 40 ff ff ff 	mov    -0xc0(%rbp),%rsp
  40331b:	48 8d 65 d8          	lea    -0x28(%rbp),%rsp
  40331f:	5b                   	pop    %rbx
  403320:	41 5c                	pop    %r12
  403322:	41 5d                	pop    %r13
  403324:	41 5e                	pop    %r14
  403326:	41 5f                	pop    %r15
  403328:	5d                   	pop    %rbp
  403329:	c3                   	retq   

000000000040332a <Rotate_Turbo>:
  40332a:	55                   	push   %rbp
  40332b:	48 89 e5             	mov    %rsp,%rbp
  40332e:	41 57                	push   %r15
  403330:	41 56                	push   %r14
  403332:	41 55                	push   %r13
  403334:	41 54                	push   %r12
  403336:	53                   	push   %rbx
  403337:	48 81 ec 78 02 00 00 	sub    $0x278,%rsp
  40333e:	48 89 bd 78 fe ff ff 	mov    %rdi,-0x188(%rbp)
  403345:	c5 fb 11 85 70 fe ff 	vmovsd %xmm0,-0x190(%rbp)
  40334c:	ff 
  40334d:	c5 fb 11 8d 68 fe ff 	vmovsd %xmm1,-0x198(%rbp)
  403354:	ff 
  403355:	89 b5 64 fe ff ff    	mov    %esi,-0x19c(%rbp)
  40335b:	89 95 60 fe ff ff    	mov    %edx,-0x1a0(%rbp)
  403361:	48 89 e0             	mov    %rsp,%rax
  403364:	48 89 85 b8 fd ff ff 	mov    %rax,-0x248(%rbp)
  40336b:	48 83 bd 78 fe ff ff 	cmpq   $0x0,-0x188(%rbp)
  403372:	00 
  403373:	75 19                	jne    40338e <Rotate_Turbo+0x64>
  403375:	b9 53 12 41 00       	mov    $0x411253,%ecx
  40337a:	ba 2b 00 00 00       	mov    $0x2b,%edx
  40337f:	be 40 12 41 00       	mov    $0x411240,%esi
  403384:	bf 4d 12 41 00       	mov    $0x41124d,%edi
  403389:	e8 e2 d6 ff ff       	callq  400a70 <__assert_fail@plt>
  40338e:	48 8b 85 78 fe ff ff 	mov    -0x188(%rbp),%rax
  403395:	48 89 c7             	mov    %rax,%rdi
  403398:	e8 63 ea ff ff       	callq  401e00 <ImageHeight>
  40339d:	89 45 cc             	mov    %eax,-0x34(%rbp)
  4033a0:	48 8b 85 78 fe ff ff 	mov    -0x188(%rbp),%rax
  4033a7:	48 89 c7             	mov    %rax,%rdi
  4033aa:	e8 1d ea ff ff       	callq  401dcc <ImageWidth>
  4033af:	89 45 c8             	mov    %eax,-0x38(%rbp)
  4033b2:	8b 45 c8             	mov    -0x38(%rbp),%eax
  4033b5:	0f af 45 cc          	imul   -0x34(%rbp),%eax
  4033b9:	48 98                	cltq   
  4033bb:	48 c1 e0 03          	shl    $0x3,%rax
  4033bf:	48 89 c7             	mov    %rax,%rdi
  4033c2:	e8 29 d7 ff ff       	callq  400af0 <malloc@plt>
  4033c7:	48 89 45 c0          	mov    %rax,-0x40(%rbp)
  4033cb:	8b 45 c8             	mov    -0x38(%rbp),%eax
  4033ce:	0f af 45 cc          	imul   -0x34(%rbp),%eax
  4033d2:	48 98                	cltq   
  4033d4:	48 c1 e0 03          	shl    $0x3,%rax
  4033d8:	48 89 c7             	mov    %rax,%rdi
  4033db:	e8 10 d7 ff ff       	callq  400af0 <malloc@plt>
  4033e0:	48 89 45 b8          	mov    %rax,-0x48(%rbp)
  4033e4:	8b 45 c8             	mov    -0x38(%rbp),%eax
  4033e7:	0f af 45 cc          	imul   -0x34(%rbp),%eax
  4033eb:	48 98                	cltq   
  4033ed:	48 c1 e0 03          	shl    $0x3,%rax
  4033f1:	48 89 c7             	mov    %rax,%rdi
  4033f4:	e8 f7 d6 ff ff       	callq  400af0 <malloc@plt>
  4033f9:	48 89 45 b0          	mov    %rax,-0x50(%rbp)
  4033fd:	8b 45 c8             	mov    -0x38(%rbp),%eax
  403400:	0f af 45 cc          	imul   -0x34(%rbp),%eax
  403404:	48 98                	cltq   
  403406:	48 c1 e0 03          	shl    $0x3,%rax
  40340a:	48 89 c7             	mov    %rax,%rdi
  40340d:	e8 de d6 ff ff       	callq  400af0 <malloc@plt>
  403412:	48 89 45 a8          	mov    %rax,-0x58(%rbp)
  403416:	8b 75 cc             	mov    -0x34(%rbp),%esi
  403419:	8b 7d c8             	mov    -0x38(%rbp),%edi
  40341c:	48 63 c6             	movslq %esi,%rax
  40341f:	48 83 e8 01          	sub    $0x1,%rax
  403423:	48 89 45 a0          	mov    %rax,-0x60(%rbp)
  403427:	48 63 c6             	movslq %esi,%rax
  40342a:	48 89 85 a0 fd ff ff 	mov    %rax,-0x260(%rbp)
  403431:	48 c7 85 a8 fd ff ff 	movq   $0x0,-0x258(%rbp)
  403438:	00 00 00 00 
  40343c:	48 63 c6             	movslq %esi,%rax
  40343f:	48 c1 e0 03          	shl    $0x3,%rax
  403443:	48 89 85 a0 fd ff ff 	mov    %rax,-0x260(%rbp)
  40344a:	48 63 c7             	movslq %edi,%rax
  40344d:	48 83 e8 01          	sub    $0x1,%rax
  403451:	48 89 45 98          	mov    %rax,-0x68(%rbp)
  403455:	48 63 c6             	movslq %esi,%rax
  403458:	49 89 c6             	mov    %rax,%r14
  40345b:	41 bf 00 00 00 00    	mov    $0x0,%r15d
  403461:	48 63 c7             	movslq %edi,%rax
  403464:	49 89 c4             	mov    %rax,%r12
  403467:	41 bd 00 00 00 00    	mov    $0x0,%r13d
  40346d:	4c 89 fa             	mov    %r15,%rdx
  403470:	49 0f af d4          	imul   %r12,%rdx
  403474:	4c 89 eb             	mov    %r13,%rbx
  403477:	49 0f af de          	imul   %r14,%rbx
  40347b:	48 89 d8             	mov    %rbx,%rax
  40347e:	48 8d 0c 02          	lea    (%rdx,%rax,1),%rcx
  403482:	4c 89 f0             	mov    %r14,%rax
  403485:	49 f7 e4             	mul    %r12
  403488:	48 01 d1             	add    %rdx,%rcx
  40348b:	48 89 ca             	mov    %rcx,%rdx
  40348e:	48 63 c6             	movslq %esi,%rax
  403491:	48 89 85 50 fe ff ff 	mov    %rax,-0x1b0(%rbp)
  403498:	48 c7 85 58 fe ff ff 	movq   $0x0,-0x1a8(%rbp)
  40349f:	00 00 00 00 
  4034a3:	48 63 c7             	movslq %edi,%rax
  4034a6:	48 89 85 40 fe ff ff 	mov    %rax,-0x1c0(%rbp)
  4034ad:	48 c7 85 48 fe ff ff 	movq   $0x0,-0x1b8(%rbp)
  4034b4:	00 00 00 00 
  4034b8:	4c 8b b5 50 fe ff ff 	mov    -0x1b0(%rbp),%r14
  4034bf:	4c 8b bd 58 fe ff ff 	mov    -0x1a8(%rbp),%r15
  4034c6:	4c 89 fa             	mov    %r15,%rdx
  4034c9:	4c 8b 95 40 fe ff ff 	mov    -0x1c0(%rbp),%r10
  4034d0:	4c 8b 9d 48 fe ff ff 	mov    -0x1b8(%rbp),%r11
  4034d7:	49 0f af d2          	imul   %r10,%rdx
  4034db:	4c 89 db             	mov    %r11,%rbx
  4034de:	49 0f af de          	imul   %r14,%rbx
  4034e2:	48 89 d8             	mov    %rbx,%rax
  4034e5:	48 8d 0c 02          	lea    (%rdx,%rax,1),%rcx
  4034e9:	4c 89 f0             	mov    %r14,%rax
  4034ec:	49 f7 e2             	mul    %r10
  4034ef:	48 01 d1             	add    %rdx,%rcx
  4034f2:	48 89 ca             	mov    %rcx,%rdx
  4034f5:	48 63 d6             	movslq %esi,%rdx
  4034f8:	48 63 c7             	movslq %edi,%rax
  4034fb:	48 0f af c2          	imul   %rdx,%rax
  4034ff:	48 c1 e0 03          	shl    $0x3,%rax
  403503:	48 8d 50 07          	lea    0x7(%rax),%rdx
  403507:	b8 10 00 00 00       	mov    $0x10,%eax
  40350c:	48 83 e8 01          	sub    $0x1,%rax
  403510:	48 01 d0             	add    %rdx,%rax
  403513:	bb 10 00 00 00       	mov    $0x10,%ebx
  403518:	ba 00 00 00 00       	mov    $0x0,%edx
  40351d:	48 f7 f3             	div    %rbx
  403520:	48 6b c0 10          	imul   $0x10,%rax,%rax
  403524:	48 29 c4             	sub    %rax,%rsp
  403527:	48 8d 44 24 20       	lea    0x20(%rsp),%rax
  40352c:	48 83 c0 07          	add    $0x7,%rax
  403530:	48 c1 e8 03          	shr    $0x3,%rax
  403534:	48 c1 e0 03          	shl    $0x3,%rax
  403538:	48 89 45 90          	mov    %rax,-0x70(%rbp)
  40353c:	8b 75 cc             	mov    -0x34(%rbp),%esi
  40353f:	8b 7d c8             	mov    -0x38(%rbp),%edi
  403542:	48 63 c6             	movslq %esi,%rax
  403545:	48 83 e8 01          	sub    $0x1,%rax
  403549:	48 89 45 88          	mov    %rax,-0x78(%rbp)
  40354d:	48 63 c6             	movslq %esi,%rax
  403550:	48 89 85 90 fd ff ff 	mov    %rax,-0x270(%rbp)
  403557:	48 c7 85 98 fd ff ff 	movq   $0x0,-0x268(%rbp)
  40355e:	00 00 00 00 
  403562:	48 63 c6             	movslq %esi,%rax
  403565:	4c 8d 24 c5 00 00 00 	lea    0x0(,%rax,8),%r12
  40356c:	00 
  40356d:	48 63 c7             	movslq %edi,%rax
  403570:	48 83 e8 01          	sub    $0x1,%rax
  403574:	48 89 45 80          	mov    %rax,-0x80(%rbp)
  403578:	48 63 c6             	movslq %esi,%rax
  40357b:	48 89 85 30 fe ff ff 	mov    %rax,-0x1d0(%rbp)
  403582:	48 c7 85 38 fe ff ff 	movq   $0x0,-0x1c8(%rbp)
  403589:	00 00 00 00 
  40358d:	48 63 c7             	movslq %edi,%rax
  403590:	48 89 85 20 fe ff ff 	mov    %rax,-0x1e0(%rbp)
  403597:	48 c7 85 28 fe ff ff 	movq   $0x0,-0x1d8(%rbp)
  40359e:	00 00 00 00 
  4035a2:	4c 8b 95 30 fe ff ff 	mov    -0x1d0(%rbp),%r10
  4035a9:	4c 8b 9d 38 fe ff ff 	mov    -0x1c8(%rbp),%r11
  4035b0:	4c 89 da             	mov    %r11,%rdx
  4035b3:	4c 8b 85 20 fe ff ff 	mov    -0x1e0(%rbp),%r8
  4035ba:	4c 8b 8d 28 fe ff ff 	mov    -0x1d8(%rbp),%r9
  4035c1:	49 0f af d0          	imul   %r8,%rdx
  4035c5:	4c 89 cb             	mov    %r9,%rbx
  4035c8:	49 0f af da          	imul   %r10,%rbx
  4035cc:	48 89 d8             	mov    %rbx,%rax
  4035cf:	48 8d 0c 02          	lea    (%rdx,%rax,1),%rcx
  4035d3:	4c 89 d0             	mov    %r10,%rax
  4035d6:	49 f7 e0             	mul    %r8
  4035d9:	48 01 d1             	add    %rdx,%rcx
  4035dc:	48 89 ca             	mov    %rcx,%rdx
  4035df:	48 63 c6             	movslq %esi,%rax
  4035e2:	48 89 85 10 fe ff ff 	mov    %rax,-0x1f0(%rbp)
  4035e9:	48 c7 85 18 fe ff ff 	movq   $0x0,-0x1e8(%rbp)
  4035f0:	00 00 00 00 
  4035f4:	48 63 c7             	movslq %edi,%rax
  4035f7:	48 89 85 00 fe ff ff 	mov    %rax,-0x200(%rbp)
  4035fe:	48 c7 85 08 fe ff ff 	movq   $0x0,-0x1f8(%rbp)
  403605:	00 00 00 00 
  403609:	4c 8b 85 10 fe ff ff 	mov    -0x1f0(%rbp),%r8
  403610:	4c 8b 8d 18 fe ff ff 	mov    -0x1e8(%rbp),%r9
  403617:	4c 89 ca             	mov    %r9,%rdx
  40361a:	4c 8b b5 00 fe ff ff 	mov    -0x200(%rbp),%r14
  403621:	4c 8b bd 08 fe ff ff 	mov    -0x1f8(%rbp),%r15
  403628:	49 0f af d6          	imul   %r14,%rdx
  40362c:	4c 89 fb             	mov    %r15,%rbx
  40362f:	49 0f af d8          	imul   %r8,%rbx
  403633:	48 89 d8             	mov    %rbx,%rax
  403636:	48 8d 0c 02          	lea    (%rdx,%rax,1),%rcx
  40363a:	4c 89 c0             	mov    %r8,%rax
  40363d:	49 f7 e6             	mul    %r14
  403640:	48 01 d1             	add    %rdx,%rcx
  403643:	48 89 ca             	mov    %rcx,%rdx
  403646:	48 63 d6             	movslq %esi,%rdx
  403649:	48 63 c7             	movslq %edi,%rax
  40364c:	48 0f af c2          	imul   %rdx,%rax
  403650:	48 c1 e0 03          	shl    $0x3,%rax
  403654:	48 8d 50 07          	lea    0x7(%rax),%rdx
  403658:	b8 10 00 00 00       	mov    $0x10,%eax
  40365d:	48 83 e8 01          	sub    $0x1,%rax
  403661:	48 01 d0             	add    %rdx,%rax
  403664:	bb 10 00 00 00       	mov    $0x10,%ebx
  403669:	ba 00 00 00 00       	mov    $0x0,%edx
  40366e:	48 f7 f3             	div    %rbx
  403671:	48 6b c0 10          	imul   $0x10,%rax,%rax
  403675:	48 29 c4             	sub    %rax,%rsp
  403678:	48 8d 44 24 20       	lea    0x20(%rsp),%rax
  40367d:	48 83 c0 07          	add    $0x7,%rax
  403681:	48 c1 e8 03          	shr    $0x3,%rax
  403685:	48 c1 e0 03          	shl    $0x3,%rax
  403689:	48 89 85 78 ff ff ff 	mov    %rax,-0x88(%rbp)
  403690:	8b 75 cc             	mov    -0x34(%rbp),%esi
  403693:	8b 7d c8             	mov    -0x38(%rbp),%edi
  403696:	48 63 c6             	movslq %esi,%rax
  403699:	48 83 e8 01          	sub    $0x1,%rax
  40369d:	48 89 85 70 ff ff ff 	mov    %rax,-0x90(%rbp)
  4036a4:	48 63 c6             	movslq %esi,%rax
  4036a7:	48 89 85 80 fd ff ff 	mov    %rax,-0x280(%rbp)
  4036ae:	48 c7 85 88 fd ff ff 	movq   $0x0,-0x278(%rbp)
  4036b5:	00 00 00 00 
  4036b9:	48 63 c6             	movslq %esi,%rax
  4036bc:	48 8d 1c c5 00 00 00 	lea    0x0(,%rax,8),%rbx
  4036c3:	00 
  4036c4:	48 63 c7             	movslq %edi,%rax
  4036c7:	48 83 e8 01          	sub    $0x1,%rax
  4036cb:	48 89 85 68 ff ff ff 	mov    %rax,-0x98(%rbp)
  4036d2:	48 63 c6             	movslq %esi,%rax
  4036d5:	48 89 85 f0 fd ff ff 	mov    %rax,-0x210(%rbp)
  4036dc:	48 c7 85 f8 fd ff ff 	movq   $0x0,-0x208(%rbp)
  4036e3:	00 00 00 00 
  4036e7:	48 63 c7             	movslq %edi,%rax
  4036ea:	48 89 85 e0 fd ff ff 	mov    %rax,-0x220(%rbp)
  4036f1:	48 c7 85 e8 fd ff ff 	movq   $0x0,-0x218(%rbp)
  4036f8:	00 00 00 00 
  4036fc:	4c 8b b5 f0 fd ff ff 	mov    -0x210(%rbp),%r14
  403703:	4c 8b bd f8 fd ff ff 	mov    -0x208(%rbp),%r15
  40370a:	4c 89 fa             	mov    %r15,%rdx
  40370d:	4c 8b 95 e0 fd ff ff 	mov    -0x220(%rbp),%r10
  403714:	4c 8b 9d e8 fd ff ff 	mov    -0x218(%rbp),%r11
  40371b:	49 0f af d2          	imul   %r10,%rdx
  40371f:	4c 89 d9             	mov    %r11,%rcx
  403722:	49 0f af ce          	imul   %r14,%rcx
  403726:	48 89 c8             	mov    %rcx,%rax
  403729:	48 8d 0c 02          	lea    (%rdx,%rax,1),%rcx
  40372d:	4c 89 f0             	mov    %r14,%rax
  403730:	49 f7 e2             	mul    %r10
  403733:	48 01 d1             	add    %rdx,%rcx
  403736:	48 89 ca             	mov    %rcx,%rdx
  403739:	48 63 c6             	movslq %esi,%rax
  40373c:	48 89 85 d0 fd ff ff 	mov    %rax,-0x230(%rbp)
  403743:	48 c7 85 d8 fd ff ff 	movq   $0x0,-0x228(%rbp)
  40374a:	00 00 00 00 
  40374e:	48 63 c7             	movslq %edi,%rax
  403751:	48 89 85 c0 fd ff ff 	mov    %rax,-0x240(%rbp)
  403758:	48 c7 85 c8 fd ff ff 	movq   $0x0,-0x238(%rbp)
  40375f:	00 00 00 00 
  403763:	4c 8b 95 d0 fd ff ff 	mov    -0x230(%rbp),%r10
  40376a:	4c 8b 9d d8 fd ff ff 	mov    -0x228(%rbp),%r11
  403771:	4c 89 da             	mov    %r11,%rdx
  403774:	4c 8b 85 c0 fd ff ff 	mov    -0x240(%rbp),%r8
  40377b:	4c 8b 8d c8 fd ff ff 	mov    -0x238(%rbp),%r9
  403782:	49 0f af d0          	imul   %r8,%rdx
  403786:	4c 89 c9             	mov    %r9,%rcx
  403789:	49 0f af ca          	imul   %r10,%rcx
  40378d:	48 89 c8             	mov    %rcx,%rax
  403790:	48 8d 0c 02          	lea    (%rdx,%rax,1),%rcx
  403794:	4c 89 d0             	mov    %r10,%rax
  403797:	49 f7 e0             	mul    %r8
  40379a:	48 01 d1             	add    %rdx,%rcx
  40379d:	48 89 ca             	mov    %rcx,%rdx
  4037a0:	48 63 d6             	movslq %esi,%rdx
  4037a3:	48 63 c7             	movslq %edi,%rax
  4037a6:	48 0f af c2          	imul   %rdx,%rax
  4037aa:	48 c1 e0 03          	shl    $0x3,%rax
  4037ae:	48 8d 50 07          	lea    0x7(%rax),%rdx
  4037b2:	b8 10 00 00 00       	mov    $0x10,%eax
  4037b7:	48 83 e8 01          	sub    $0x1,%rax
  4037bb:	48 01 d0             	add    %rdx,%rax
  4037be:	be 10 00 00 00       	mov    $0x10,%esi
  4037c3:	ba 00 00 00 00       	mov    $0x0,%edx
  4037c8:	48 f7 f6             	div    %rsi
  4037cb:	48 6b c0 10          	imul   $0x10,%rax,%rax
  4037cf:	48 29 c4             	sub    %rax,%rsp
  4037d2:	48 8d 44 24 20       	lea    0x20(%rsp),%rax
  4037d7:	48 83 c0 07          	add    $0x7,%rax
  4037db:	48 c1 e8 03          	shr    $0x3,%rax
  4037df:	48 c1 e0 03          	shl    $0x3,%rax
  4037e3:	48 89 85 60 ff ff ff 	mov    %rax,-0xa0(%rbp)
  4037ea:	48 b8 18 2d 44 54 fb 	movabs $0x400921fb54442d18,%rax
  4037f1:	21 09 40 
  4037f4:	48 89 85 58 ff ff ff 	mov    %rax,-0xa8(%rbp)
  4037fb:	c5 fb 10 8d 70 fe ff 	vmovsd -0x190(%rbp),%xmm1
  403802:	ff 
  403803:	c5 fb 10 05 85 da 00 	vmovsd 0xda85(%rip),%xmm0        # 411290 <__PRETTY_FUNCTION__.6560+0x20>
  40380a:	00 
  40380b:	c5 f9 57 c1          	vxorpd %xmm1,%xmm0,%xmm0
  40380f:	c5 fb 10 0d 89 da 00 	vmovsd 0xda89(%rip),%xmm1        # 4112a0 <__PRETTY_FUNCTION__.6560+0x30>
  403816:	00 
  403817:	c5 fb 5e c1          	vdivsd %xmm1,%xmm0,%xmm0
  40381b:	c5 fb 58 c0          	vaddsd %xmm0,%xmm0,%xmm0
  40381f:	c5 fb 59 85 58 ff ff 	vmulsd -0xa8(%rbp),%xmm0,%xmm0
  403826:	ff 
  403827:	c5 fb 11 85 50 ff ff 	vmovsd %xmm0,-0xb0(%rbp)
  40382e:	ff 
  40382f:	48 8b 85 50 ff ff ff 	mov    -0xb0(%rbp),%rax
  403836:	48 89 85 50 fe ff ff 	mov    %rax,-0x1b0(%rbp)
  40383d:	c5 fb 10 85 50 fe ff 	vmovsd -0x1b0(%rbp),%xmm0
  403844:	ff 
  403845:	e8 46 d2 ff ff       	callq  400a90 <cos@plt>
  40384a:	c5 fb 5e 85 68 fe ff 	vdivsd -0x198(%rbp),%xmm0,%xmm0
  403851:	ff 
  403852:	c5 fb 11 85 80 fe ff 	vmovsd %xmm0,-0x180(%rbp)
  403859:	ff 
  40385a:	48 8b 85 50 ff ff ff 	mov    -0xb0(%rbp),%rax
  403861:	48 89 85 50 fe ff ff 	mov    %rax,-0x1b0(%rbp)
  403868:	c5 fb 10 85 50 fe ff 	vmovsd -0x1b0(%rbp),%xmm0
  40386f:	ff 
  403870:	e8 ab d2 ff ff       	callq  400b20 <sin@plt>
  403875:	c5 fb 10 0d 13 da 00 	vmovsd 0xda13(%rip),%xmm1        # 411290 <__PRETTY_FUNCTION__.6560+0x20>
  40387c:	00 
  40387d:	c5 f9 57 c1          	vxorpd %xmm1,%xmm0,%xmm0
  403881:	c5 fb 5e 85 68 fe ff 	vdivsd -0x198(%rbp),%xmm0,%xmm0
  403888:	ff 
  403889:	c5 fb 11 85 88 fe ff 	vmovsd %xmm0,-0x178(%rbp)
  403890:	ff 
  403891:	48 8b 85 50 ff ff ff 	mov    -0xb0(%rbp),%rax
  403898:	48 89 85 50 fe ff ff 	mov    %rax,-0x1b0(%rbp)
  40389f:	c5 fb 10 85 50 fe ff 	vmovsd -0x1b0(%rbp),%xmm0
  4038a6:	ff 
  4038a7:	e8 74 d2 ff ff       	callq  400b20 <sin@plt>
  4038ac:	c5 fb 5e 85 68 fe ff 	vdivsd -0x198(%rbp),%xmm0,%xmm0
  4038b3:	ff 
  4038b4:	c5 fb 11 85 90 fe ff 	vmovsd %xmm0,-0x170(%rbp)
  4038bb:	ff 
  4038bc:	48 8b 85 50 ff ff ff 	mov    -0xb0(%rbp),%rax
  4038c3:	48 89 85 50 fe ff ff 	mov    %rax,-0x1b0(%rbp)
  4038ca:	c5 fb 10 85 50 fe ff 	vmovsd -0x1b0(%rbp),%xmm0
  4038d1:	ff 
  4038d2:	e8 b9 d1 ff ff       	callq  400a90 <cos@plt>
  4038d7:	c5 fb 5e 85 68 fe ff 	vdivsd -0x198(%rbp),%xmm0,%xmm0
  4038de:	ff 
  4038df:	c5 fb 11 85 98 fe ff 	vmovsd %xmm0,-0x168(%rbp)
  4038e6:	ff 
  4038e7:	48 8b 45 c0          	mov    -0x40(%rbp),%rax
  4038eb:	48 89 85 a0 fe ff ff 	mov    %rax,-0x160(%rbp)
  4038f2:	48 8b 45 b8          	mov    -0x48(%rbp),%rax
  4038f6:	48 89 85 a8 fe ff ff 	mov    %rax,-0x158(%rbp)
  4038fd:	8b 45 cc             	mov    -0x34(%rbp),%eax
  403900:	89 85 b0 fe ff ff    	mov    %eax,-0x150(%rbp)
  403906:	8b 45 c8             	mov    -0x38(%rbp),%eax
  403909:	89 85 b4 fe ff ff    	mov    %eax,-0x14c(%rbp)
  40390f:	48 8d 85 a0 fe ff ff 	lea    -0x160(%rbp),%rax
  403916:	ba 08 00 00 00       	mov    $0x8,%edx
  40391b:	48 89 c6             	mov    %rax,%rsi
  40391e:	bf 4d 00 41 00       	mov    $0x41004d,%edi
  403923:	e8 d8 d0 ff ff       	callq  400a00 <GOMP_parallel_start@plt>
  403928:	48 8d 85 a0 fe ff ff 	lea    -0x160(%rbp),%rax
  40392f:	48 89 c7             	mov    %rax,%rdi
  403932:	e8 16 c7 00 00       	callq  41004d <Rotate_Turbo._omp_fn.0>
  403937:	e8 04 d1 ff ff       	callq  400a40 <GOMP_parallel_end@plt>
  40393c:	48 8b 85 a0 fe ff ff 	mov    -0x160(%rbp),%rax
  403943:	48 89 45 c0          	mov    %rax,-0x40(%rbp)
  403947:	48 8b 85 a8 fe ff ff 	mov    -0x158(%rbp),%rax
  40394e:	48 89 45 b8          	mov    %rax,-0x48(%rbp)
  403952:	8b 85 b0 fe ff ff    	mov    -0x150(%rbp),%eax
  403958:	89 45 cc             	mov    %eax,-0x34(%rbp)
  40395b:	8b 85 b4 fe ff ff    	mov    -0x14c(%rbp),%eax
  403961:	89 45 c8             	mov    %eax,-0x38(%rbp)
  403964:	44 8b 4d c8          	mov    -0x38(%rbp),%r9d
  403968:	44 8b 45 cc          	mov    -0x34(%rbp),%r8d
  40396c:	8b 8d 60 fe ff ff    	mov    -0x1a0(%rbp),%ecx
  403972:	8b 95 64 fe ff ff    	mov    -0x19c(%rbp),%edx
  403978:	48 8d b5 80 fe ff ff 	lea    -0x180(%rbp),%rsi
  40397f:	48 8b 85 78 fe ff ff 	mov    -0x188(%rbp),%rax
  403986:	48 8b 7d a8          	mov    -0x58(%rbp),%rdi
  40398a:	48 89 7c 24 18       	mov    %rdi,0x18(%rsp)
  40398f:	48 8b 7d b0          	mov    -0x50(%rbp),%rdi
  403993:	48 89 7c 24 10       	mov    %rdi,0x10(%rsp)
  403998:	48 8b 7d b8          	mov    -0x48(%rbp),%rdi
  40399c:	48 89 7c 24 08       	mov    %rdi,0x8(%rsp)
  4039a1:	48 8b 7d c0          	mov    -0x40(%rbp),%rdi
  4039a5:	48 89 3c 24          	mov    %rdi,(%rsp)
  4039a9:	48 89 c7             	mov    %rax,%rdi
  4039ac:	e8 6b 4e 00 00       	callq  40881c <kernel_rotate>
  4039b1:	48 8b 85 60 ff ff ff 	mov    -0xa0(%rbp),%rax
  4039b8:	48 89 85 00 ff ff ff 	mov    %rax,-0x100(%rbp)
  4039bf:	48 89 9d f8 fe ff ff 	mov    %rbx,-0x108(%rbp)
  4039c6:	48 8b 85 78 ff ff ff 	mov    -0x88(%rbp),%rax
  4039cd:	48 89 85 f0 fe ff ff 	mov    %rax,-0x110(%rbp)
  4039d4:	4c 89 a5 e8 fe ff ff 	mov    %r12,-0x118(%rbp)
  4039db:	48 8b 45 90          	mov    -0x70(%rbp),%rax
  4039df:	48 89 85 e0 fe ff ff 	mov    %rax,-0x120(%rbp)
  4039e6:	4c 8b bd a0 fd ff ff 	mov    -0x260(%rbp),%r15
  4039ed:	4c 89 f8             	mov    %r15,%rax
  4039f0:	48 89 85 d8 fe ff ff 	mov    %rax,-0x128(%rbp)
  4039f7:	48 8b 85 78 fe ff ff 	mov    -0x188(%rbp),%rax
  4039fe:	48 89 85 c0 fe ff ff 	mov    %rax,-0x140(%rbp)
  403a05:	48 8b 45 b0          	mov    -0x50(%rbp),%rax
  403a09:	48 89 85 c8 fe ff ff 	mov    %rax,-0x138(%rbp)
  403a10:	48 8b 45 a8          	mov    -0x58(%rbp),%rax
  403a14:	48 89 85 d0 fe ff ff 	mov    %rax,-0x130(%rbp)
  403a1b:	8b 45 cc             	mov    -0x34(%rbp),%eax
  403a1e:	89 85 08 ff ff ff    	mov    %eax,-0xf8(%rbp)
  403a24:	8b 45 c8             	mov    -0x38(%rbp),%eax
  403a27:	89 85 0c ff ff ff    	mov    %eax,-0xf4(%rbp)
  403a2d:	48 8d 85 c0 fe ff ff 	lea    -0x140(%rbp),%rax
  403a34:	ba 08 00 00 00       	mov    $0x8,%edx
  403a39:	48 89 c6             	mov    %rax,%rsi
  403a3c:	bf 3f 01 41 00       	mov    $0x41013f,%edi
  403a41:	e8 ba cf ff ff       	callq  400a00 <GOMP_parallel_start@plt>
  403a46:	48 8d 85 c0 fe ff ff 	lea    -0x140(%rbp),%rax
  403a4d:	48 89 c7             	mov    %rax,%rdi
  403a50:	e8 ea c6 00 00       	callq  41013f <Rotate_Turbo._omp_fn.1>
  403a55:	e8 e6 cf ff ff       	callq  400a40 <GOMP_parallel_end@plt>
  403a5a:	48 8b 85 c0 fe ff ff 	mov    -0x140(%rbp),%rax
  403a61:	48 89 85 78 fe ff ff 	mov    %rax,-0x188(%rbp)
  403a68:	48 8b 85 c8 fe ff ff 	mov    -0x138(%rbp),%rax
  403a6f:	48 89 45 b0          	mov    %rax,-0x50(%rbp)
  403a73:	48 8b 85 d0 fe ff ff 	mov    -0x130(%rbp),%rax
  403a7a:	48 89 45 a8          	mov    %rax,-0x58(%rbp)
  403a7e:	8b 85 08 ff ff ff    	mov    -0xf8(%rbp),%eax
  403a84:	89 45 cc             	mov    %eax,-0x34(%rbp)
  403a87:	8b 85 0c ff ff ff    	mov    -0xf4(%rbp),%eax
  403a8d:	89 45 c8             	mov    %eax,-0x38(%rbp)
  403a90:	48 8b 85 60 ff ff ff 	mov    -0xa0(%rbp),%rax
  403a97:	48 89 85 40 ff ff ff 	mov    %rax,-0xc0(%rbp)
  403a9e:	48 89 9d 38 ff ff ff 	mov    %rbx,-0xc8(%rbp)
  403aa5:	48 8b 85 78 ff ff ff 	mov    -0x88(%rbp),%rax
  403aac:	48 89 85 30 ff ff ff 	mov    %rax,-0xd0(%rbp)
  403ab3:	4c 89 a5 28 ff ff ff 	mov    %r12,-0xd8(%rbp)
  403aba:	48 8b 45 90          	mov    -0x70(%rbp),%rax
  403abe:	48 89 85 20 ff ff ff 	mov    %rax,-0xe0(%rbp)
  403ac5:	4c 89 f8             	mov    %r15,%rax
  403ac8:	48 89 85 18 ff ff ff 	mov    %rax,-0xe8(%rbp)
  403acf:	48 8b 85 78 fe ff ff 	mov    -0x188(%rbp),%rax
  403ad6:	48 89 85 10 ff ff ff 	mov    %rax,-0xf0(%rbp)
  403add:	8b 45 cc             	mov    -0x34(%rbp),%eax
  403ae0:	89 85 48 ff ff ff    	mov    %eax,-0xb8(%rbp)
  403ae6:	8b 45 c8             	mov    -0x38(%rbp),%eax
  403ae9:	89 85 4c ff ff ff    	mov    %eax,-0xb4(%rbp)
  403aef:	48 8d 85 10 ff ff ff 	lea    -0xf0(%rbp),%rax
  403af6:	ba 08 00 00 00       	mov    $0x8,%edx
  403afb:	48 89 c6             	mov    %rax,%rsi
  403afe:	bf e5 04 41 00       	mov    $0x4104e5,%edi
  403b03:	e8 f8 ce ff ff       	callq  400a00 <GOMP_parallel_start@plt>
  403b08:	48 8d 85 10 ff ff ff 	lea    -0xf0(%rbp),%rax
  403b0f:	48 89 c7             	mov    %rax,%rdi
  403b12:	e8 ce c9 00 00       	callq  4104e5 <Rotate_Turbo._omp_fn.2>
  403b17:	e8 24 cf ff ff       	callq  400a40 <GOMP_parallel_end@plt>
  403b1c:	48 8b 85 10 ff ff ff 	mov    -0xf0(%rbp),%rax
  403b23:	48 89 85 78 fe ff ff 	mov    %rax,-0x188(%rbp)
  403b2a:	8b 85 48 ff ff ff    	mov    -0xb8(%rbp),%eax
  403b30:	89 45 cc             	mov    %eax,-0x34(%rbp)
  403b33:	8b 85 4c ff ff ff    	mov    -0xb4(%rbp),%eax
  403b39:	89 45 c8             	mov    %eax,-0x38(%rbp)
  403b3c:	48 8b 45 c0          	mov    -0x40(%rbp),%rax
  403b40:	48 89 c7             	mov    %rax,%rdi
  403b43:	e8 88 ce ff ff       	callq  4009d0 <free@plt>
  403b48:	48 8b 45 b8          	mov    -0x48(%rbp),%rax
  403b4c:	48 89 c7             	mov    %rax,%rdi
  403b4f:	e8 7c ce ff ff       	callq  4009d0 <free@plt>
  403b54:	48 8b 45 b0          	mov    -0x50(%rbp),%rax
  403b58:	48 89 c7             	mov    %rax,%rdi
  403b5b:	e8 70 ce ff ff       	callq  4009d0 <free@plt>
  403b60:	48 8b 45 a8          	mov    -0x58(%rbp),%rax
  403b64:	48 89 c7             	mov    %rax,%rdi
  403b67:	e8 64 ce ff ff       	callq  4009d0 <free@plt>
  403b6c:	48 8b 85 78 fe ff ff 	mov    -0x188(%rbp),%rax
  403b73:	48 8b a5 b8 fd ff ff 	mov    -0x248(%rbp),%rsp
  403b7a:	48 8d 65 d8          	lea    -0x28(%rbp),%rsp
  403b7e:	5b                   	pop    %rbx
  403b7f:	41 5c                	pop    %r12
  403b81:	41 5d                	pop    %r13
  403b83:	41 5e                	pop    %r14
  403b85:	41 5f                	pop    %r15
  403b87:	5d                   	pop    %rbp
  403b88:	c3                   	retq   

0000000000403b89 <Edge_Turbo>:
  403b89:	55                   	push   %rbp
  403b8a:	48 89 e5             	mov    %rsp,%rbp
  403b8d:	41 57                	push   %r15
  403b8f:	41 56                	push   %r14
  403b91:	41 55                	push   %r13
  403b93:	41 54                	push   %r12
  403b95:	53                   	push   %rbx
  403b96:	48 81 ec f8 00 00 00 	sub    $0xf8,%rsp
  403b9d:	48 89 bd 28 ff ff ff 	mov    %rdi,-0xd8(%rbp)
  403ba4:	48 89 e0             	mov    %rsp,%rax
  403ba7:	48 89 85 20 ff ff ff 	mov    %rax,-0xe0(%rbp)
  403bae:	48 83 bd 28 ff ff ff 	cmpq   $0x0,-0xd8(%rbp)
  403bb5:	00 
  403bb6:	75 19                	jne    403bd1 <Edge_Turbo+0x48>
  403bb8:	b9 60 12 41 00       	mov    $0x411260,%ecx
  403bbd:	ba 79 00 00 00       	mov    $0x79,%edx
  403bc2:	be 40 12 41 00       	mov    $0x411240,%esi
  403bc7:	bf 4d 12 41 00       	mov    $0x41124d,%edi
  403bcc:	e8 9f ce ff ff       	callq  400a70 <__assert_fail@plt>
  403bd1:	48 8b 85 28 ff ff ff 	mov    -0xd8(%rbp),%rax
  403bd8:	48 89 c7             	mov    %rax,%rdi
  403bdb:	e8 20 e2 ff ff       	callq  401e00 <ImageHeight>
  403be0:	89 45 c4             	mov    %eax,-0x3c(%rbp)
  403be3:	48 8b 85 28 ff ff ff 	mov    -0xd8(%rbp),%rax
  403bea:	48 89 c7             	mov    %rax,%rdi
  403bed:	e8 da e1 ff ff       	callq  401dcc <ImageWidth>
  403bf2:	89 45 c0             	mov    %eax,-0x40(%rbp)
  403bf5:	8b 45 c4             	mov    -0x3c(%rbp),%eax
  403bf8:	83 e8 02             	sub    $0x2,%eax
  403bfb:	01 c0                	add    %eax,%eax
  403bfd:	89 45 bc             	mov    %eax,-0x44(%rbp)
  403c00:	8b 45 c0             	mov    -0x40(%rbp),%eax
  403c03:	83 e8 04             	sub    $0x4,%eax
  403c06:	8d 50 0f             	lea    0xf(%rax),%edx
  403c09:	85 c0                	test   %eax,%eax
  403c0b:	0f 48 c2             	cmovs  %edx,%eax
  403c0e:	c1 f8 04             	sar    $0x4,%eax
  403c11:	89 c2                	mov    %eax,%edx
  403c13:	89 d0                	mov    %edx,%eax
  403c15:	01 c0                	add    %eax,%eax
  403c17:	01 d0                	add    %edx,%eax
  403c19:	c1 e0 03             	shl    $0x3,%eax
  403c1c:	89 45 b8             	mov    %eax,-0x48(%rbp)
  403c1f:	8b 45 bc             	mov    -0x44(%rbp),%eax
  403c22:	89 c2                	mov    %eax,%edx
  403c24:	c1 ea 1f             	shr    $0x1f,%edx
  403c27:	01 d0                	add    %edx,%eax
  403c29:	d1 f8                	sar    %eax
  403c2b:	89 45 b4             	mov    %eax,-0x4c(%rbp)
  403c2e:	8b 45 b8             	mov    -0x48(%rbp),%eax
  403c31:	8d 0c 00             	lea    (%rax,%rax,1),%ecx
  403c34:	ba 56 55 55 55       	mov    $0x55555556,%edx
  403c39:	89 c8                	mov    %ecx,%eax
  403c3b:	f7 ea                	imul   %edx
  403c3d:	89 c8                	mov    %ecx,%eax
  403c3f:	c1 f8 1f             	sar    $0x1f,%eax
  403c42:	29 c2                	sub    %eax,%edx
  403c44:	89 d0                	mov    %edx,%eax
  403c46:	89 45 b0             	mov    %eax,-0x50(%rbp)
  403c49:	8b 45 c4             	mov    -0x3c(%rbp),%eax
  403c4c:	0f af 45 c0          	imul   -0x40(%rbp),%eax
  403c50:	89 c2                	mov    %eax,%edx
  403c52:	48 63 c2             	movslq %edx,%rax
  403c55:	48 83 e8 01          	sub    $0x1,%rax
  403c59:	48 89 45 a8          	mov    %rax,-0x58(%rbp)
  403c5d:	48 63 c2             	movslq %edx,%rax
  403c60:	48 89 85 10 ff ff ff 	mov    %rax,-0xf0(%rbp)
  403c67:	48 c7 85 18 ff ff ff 	movq   $0x0,-0xe8(%rbp)
  403c6e:	00 00 00 00 
  403c72:	48 63 c2             	movslq %edx,%rax
  403c75:	48 89 85 00 ff ff ff 	mov    %rax,-0x100(%rbp)
  403c7c:	48 c7 85 08 ff ff ff 	movq   $0x0,-0xf8(%rbp)
  403c83:	00 00 00 00 
  403c87:	48 63 c2             	movslq %edx,%rax
  403c8a:	48 c1 e0 03          	shl    $0x3,%rax
  403c8e:	48 8d 50 07          	lea    0x7(%rax),%rdx
  403c92:	b8 10 00 00 00       	mov    $0x10,%eax
  403c97:	48 83 e8 01          	sub    $0x1,%rax
  403c9b:	48 01 d0             	add    %rdx,%rax
  403c9e:	bb 10 00 00 00       	mov    $0x10,%ebx
  403ca3:	ba 00 00 00 00       	mov    $0x0,%edx
  403ca8:	48 f7 f3             	div    %rbx
  403cab:	48 6b c0 10          	imul   $0x10,%rax,%rax
  403caf:	48 29 c4             	sub    %rax,%rsp
  403cb2:	48 89 e0             	mov    %rsp,%rax
  403cb5:	48 83 c0 07          	add    $0x7,%rax
  403cb9:	48 c1 e8 03          	shr    $0x3,%rax
  403cbd:	48 c1 e0 03          	shl    $0x3,%rax
  403cc1:	48 89 45 a0          	mov    %rax,-0x60(%rbp)
  403cc5:	8b 45 c4             	mov    -0x3c(%rbp),%eax
  403cc8:	0f af 45 c0          	imul   -0x40(%rbp),%eax
  403ccc:	48 63 d0             	movslq %eax,%rdx
  403ccf:	48 83 ea 01          	sub    $0x1,%rdx
  403cd3:	48 89 55 98          	mov    %rdx,-0x68(%rbp)
  403cd7:	48 63 d0             	movslq %eax,%rdx
  403cda:	48 89 95 f0 fe ff ff 	mov    %rdx,-0x110(%rbp)
  403ce1:	48 c7 85 f8 fe ff ff 	movq   $0x0,-0x108(%rbp)
  403ce8:	00 00 00 00 
  403cec:	48 63 d0             	movslq %eax,%rdx
  403cef:	48 89 95 e0 fe ff ff 	mov    %rdx,-0x120(%rbp)
  403cf6:	48 c7 85 e8 fe ff ff 	movq   $0x0,-0x118(%rbp)
  403cfd:	00 00 00 00 
  403d01:	48 98                	cltq   
  403d03:	48 c1 e0 03          	shl    $0x3,%rax
  403d07:	48 8d 50 07          	lea    0x7(%rax),%rdx
  403d0b:	b8 10 00 00 00       	mov    $0x10,%eax
  403d10:	48 83 e8 01          	sub    $0x1,%rax
  403d14:	48 01 d0             	add    %rdx,%rax
  403d17:	bb 10 00 00 00       	mov    $0x10,%ebx
  403d1c:	ba 00 00 00 00       	mov    $0x0,%edx
  403d21:	48 f7 f3             	div    %rbx
  403d24:	48 6b c0 10          	imul   $0x10,%rax,%rax
  403d28:	48 29 c4             	sub    %rax,%rsp
  403d2b:	48 89 e0             	mov    %rsp,%rax
  403d2e:	48 83 c0 07          	add    $0x7,%rax
  403d32:	48 c1 e8 03          	shr    $0x3,%rax
  403d36:	48 c1 e0 03          	shl    $0x3,%rax
  403d3a:	48 89 45 90          	mov    %rax,-0x70(%rbp)
  403d3e:	8b 45 c4             	mov    -0x3c(%rbp),%eax
  403d41:	0f af 45 c0          	imul   -0x40(%rbp),%eax
  403d45:	48 63 d0             	movslq %eax,%rdx
  403d48:	48 83 ea 01          	sub    $0x1,%rdx
  403d4c:	48 89 55 88          	mov    %rdx,-0x78(%rbp)
  403d50:	48 63 d0             	movslq %eax,%rdx
  403d53:	49 89 d6             	mov    %rdx,%r14
  403d56:	41 bf 00 00 00 00    	mov    $0x0,%r15d
  403d5c:	48 63 d0             	movslq %eax,%rdx
  403d5f:	49 89 d4             	mov    %rdx,%r12
  403d62:	41 bd 00 00 00 00    	mov    $0x0,%r13d
  403d68:	48 98                	cltq   
  403d6a:	48 c1 e0 03          	shl    $0x3,%rax
  403d6e:	48 8d 50 07          	lea    0x7(%rax),%rdx
  403d72:	b8 10 00 00 00       	mov    $0x10,%eax
  403d77:	48 83 e8 01          	sub    $0x1,%rax
  403d7b:	48 01 d0             	add    %rdx,%rax
  403d7e:	bb 10 00 00 00       	mov    $0x10,%ebx
  403d83:	ba 00 00 00 00       	mov    $0x0,%edx
  403d88:	48 f7 f3             	div    %rbx
  403d8b:	48 6b c0 10          	imul   $0x10,%rax,%rax
  403d8f:	48 29 c4             	sub    %rax,%rsp
  403d92:	48 89 e0             	mov    %rsp,%rax
  403d95:	48 83 c0 07          	add    $0x7,%rax
  403d99:	48 c1 e8 03          	shr    $0x3,%rax
  403d9d:	48 c1 e0 03          	shl    $0x3,%rax
  403da1:	48 89 45 80          	mov    %rax,-0x80(%rbp)
  403da5:	8b 45 bc             	mov    -0x44(%rbp),%eax
  403da8:	0f af 45 b8          	imul   -0x48(%rbp),%eax
  403dac:	48 98                	cltq   
  403dae:	48 c1 e0 03          	shl    $0x3,%rax
  403db2:	48 89 c7             	mov    %rax,%rdi
  403db5:	e8 36 cd ff ff       	callq  400af0 <malloc@plt>
  403dba:	48 89 85 78 ff ff ff 	mov    %rax,-0x88(%rbp)
  403dc1:	8b 45 bc             	mov    -0x44(%rbp),%eax
  403dc4:	0f af 45 b8          	imul   -0x48(%rbp),%eax
  403dc8:	48 98                	cltq   
  403dca:	48 c1 e0 03          	shl    $0x3,%rax
  403dce:	48 89 c7             	mov    %rax,%rdi
  403dd1:	e8 1a cd ff ff       	callq  400af0 <malloc@plt>
  403dd6:	48 89 85 70 ff ff ff 	mov    %rax,-0x90(%rbp)
  403ddd:	8b 45 bc             	mov    -0x44(%rbp),%eax
  403de0:	0f af 45 b8          	imul   -0x48(%rbp),%eax
  403de4:	48 98                	cltq   
  403de6:	48 c1 e0 03          	shl    $0x3,%rax
  403dea:	48 89 c7             	mov    %rax,%rdi
  403ded:	e8 fe cc ff ff       	callq  400af0 <malloc@plt>
  403df2:	48 89 85 68 ff ff ff 	mov    %rax,-0x98(%rbp)
  403df9:	8b 45 b4             	mov    -0x4c(%rbp),%eax
  403dfc:	0f af 45 b0          	imul   -0x50(%rbp),%eax
  403e00:	48 98                	cltq   
  403e02:	48 c1 e0 03          	shl    $0x3,%rax
  403e06:	48 89 c7             	mov    %rax,%rdi
  403e09:	e8 e2 cc ff ff       	callq  400af0 <malloc@plt>
  403e0e:	48 89 85 60 ff ff ff 	mov    %rax,-0xa0(%rbp)
  403e15:	8b 45 b4             	mov    -0x4c(%rbp),%eax
  403e18:	0f af 45 b0          	imul   -0x50(%rbp),%eax
  403e1c:	48 98                	cltq   
  403e1e:	48 c1 e0 03          	shl    $0x3,%rax
  403e22:	48 89 c7             	mov    %rax,%rdi
  403e25:	e8 c6 cc ff ff       	callq  400af0 <malloc@plt>
  403e2a:	48 89 85 58 ff ff ff 	mov    %rax,-0xa8(%rbp)
  403e31:	8b 45 b4             	mov    -0x4c(%rbp),%eax
  403e34:	0f af 45 b0          	imul   -0x50(%rbp),%eax
  403e38:	48 98                	cltq   
  403e3a:	48 c1 e0 03          	shl    $0x3,%rax
  403e3e:	48 89 c7             	mov    %rax,%rdi
  403e41:	e8 aa cc ff ff       	callq  400af0 <malloc@plt>
  403e46:	48 89 85 50 ff ff ff 	mov    %rax,-0xb0(%rbp)
  403e4d:	8b 45 b4             	mov    -0x4c(%rbp),%eax
  403e50:	0f af 45 b0          	imul   -0x50(%rbp),%eax
  403e54:	48 98                	cltq   
  403e56:	48 c1 e0 03          	shl    $0x3,%rax
  403e5a:	48 89 c7             	mov    %rax,%rdi
  403e5d:	e8 8e cc ff ff       	callq  400af0 <malloc@plt>
  403e62:	48 89 85 48 ff ff ff 	mov    %rax,-0xb8(%rbp)
  403e69:	8b 45 b4             	mov    -0x4c(%rbp),%eax
  403e6c:	0f af 45 b0          	imul   -0x50(%rbp),%eax
  403e70:	48 98                	cltq   
  403e72:	48 c1 e0 03          	shl    $0x3,%rax
  403e76:	48 89 c7             	mov    %rax,%rdi
  403e79:	e8 72 cc ff ff       	callq  400af0 <malloc@plt>
  403e7e:	48 89 85 40 ff ff ff 	mov    %rax,-0xc0(%rbp)
  403e85:	8b 45 b4             	mov    -0x4c(%rbp),%eax
  403e88:	0f af 45 b0          	imul   -0x50(%rbp),%eax
  403e8c:	48 98                	cltq   
  403e8e:	48 c1 e0 03          	shl    $0x3,%rax
  403e92:	48 89 c7             	mov    %rax,%rdi
  403e95:	e8 56 cc ff ff       	callq  400af0 <malloc@plt>
  403e9a:	48 89 85 38 ff ff ff 	mov    %rax,-0xc8(%rbp)
  403ea1:	c7 45 cc 00 00 00 00 	movl   $0x0,-0x34(%rbp)
  403ea8:	e9 e0 00 00 00       	jmpq   403f8d <Edge_Turbo+0x404>
  403ead:	c7 45 c8 00 00 00 00 	movl   $0x0,-0x38(%rbp)
  403eb4:	e9 c4 00 00 00       	jmpq   403f7d <Edge_Turbo+0x3f4>
  403eb9:	8b 45 cc             	mov    -0x34(%rbp),%eax
  403ebc:	0f af 45 c0          	imul   -0x40(%rbp),%eax
  403ec0:	89 c2                	mov    %eax,%edx
  403ec2:	8b 45 c8             	mov    -0x38(%rbp),%eax
  403ec5:	8d 1c 02             	lea    (%rdx,%rax,1),%ebx
  403ec8:	8b 55 cc             	mov    -0x34(%rbp),%edx
  403ecb:	8b 4d c8             	mov    -0x38(%rbp),%ecx
  403ece:	48 8b 85 28 ff ff ff 	mov    -0xd8(%rbp),%rax
  403ed5:	89 ce                	mov    %ecx,%esi
  403ed7:	48 89 c7             	mov    %rax,%rdi
  403eda:	e8 5f d9 ff ff       	callq  40183e <GetPixelR>
  403edf:	c5 fb 11 85 10 ff ff 	vmovsd %xmm0,-0xf0(%rbp)
  403ee6:	ff 
  403ee7:	48 8b 85 10 ff ff ff 	mov    -0xf0(%rbp),%rax
  403eee:	48 8b 55 a0          	mov    -0x60(%rbp),%rdx
  403ef2:	48 63 cb             	movslq %ebx,%rcx
  403ef5:	48 89 04 ca          	mov    %rax,(%rdx,%rcx,8)
  403ef9:	8b 45 cc             	mov    -0x34(%rbp),%eax
  403efc:	0f af 45 c0          	imul   -0x40(%rbp),%eax
  403f00:	89 c2                	mov    %eax,%edx
  403f02:	8b 45 c8             	mov    -0x38(%rbp),%eax
  403f05:	8d 1c 02             	lea    (%rdx,%rax,1),%ebx
  403f08:	8b 55 cc             	mov    -0x34(%rbp),%edx
  403f0b:	8b 4d c8             	mov    -0x38(%rbp),%ecx
  403f0e:	48 8b 85 28 ff ff ff 	mov    -0xd8(%rbp),%rax
  403f15:	89 ce                	mov    %ecx,%esi
  403f17:	48 89 c7             	mov    %rax,%rdi
  403f1a:	e8 ca d9 ff ff       	callq  4018e9 <GetPixelG>
  403f1f:	c5 fb 11 85 10 ff ff 	vmovsd %xmm0,-0xf0(%rbp)
  403f26:	ff 
  403f27:	48 8b 85 10 ff ff ff 	mov    -0xf0(%rbp),%rax
  403f2e:	48 8b 55 90          	mov    -0x70(%rbp),%rdx
  403f32:	48 63 cb             	movslq %ebx,%rcx
  403f35:	48 89 04 ca          	mov    %rax,(%rdx,%rcx,8)
  403f39:	8b 45 cc             	mov    -0x34(%rbp),%eax
  403f3c:	0f af 45 c0          	imul   -0x40(%rbp),%eax
  403f40:	89 c2                	mov    %eax,%edx
  403f42:	8b 45 c8             	mov    -0x38(%rbp),%eax
  403f45:	8d 1c 02             	lea    (%rdx,%rax,1),%ebx
  403f48:	8b 55 cc             	mov    -0x34(%rbp),%edx
  403f4b:	8b 4d c8             	mov    -0x38(%rbp),%ecx
  403f4e:	48 8b 85 28 ff ff ff 	mov    -0xd8(%rbp),%rax
  403f55:	89 ce                	mov    %ecx,%esi
  403f57:	48 89 c7             	mov    %rax,%rdi
  403f5a:	e8 35 da ff ff       	callq  401994 <GetPixelB>
  403f5f:	c5 fb 11 85 10 ff ff 	vmovsd %xmm0,-0xf0(%rbp)
  403f66:	ff 
  403f67:	48 8b 85 10 ff ff ff 	mov    -0xf0(%rbp),%rax
  403f6e:	48 8b 55 80          	mov    -0x80(%rbp),%rdx
  403f72:	48 63 cb             	movslq %ebx,%rcx
  403f75:	48 89 04 ca          	mov    %rax,(%rdx,%rcx,8)
  403f79:	83 45 c8 01          	addl   $0x1,-0x38(%rbp)
  403f7d:	8b 45 c8             	mov    -0x38(%rbp),%eax
  403f80:	3b 45 c0             	cmp    -0x40(%rbp),%eax
  403f83:	0f 8c 30 ff ff ff    	jl     403eb9 <Edge_Turbo+0x330>
  403f89:	83 45 cc 01          	addl   $0x1,-0x34(%rbp)
  403f8d:	8b 45 cc             	mov    -0x34(%rbp),%eax
  403f90:	3b 45 c4             	cmp    -0x3c(%rbp),%eax
  403f93:	0f 8c 14 ff ff ff    	jl     403ead <Edge_Turbo+0x324>
  403f99:	48 8b 45 a0          	mov    -0x60(%rbp),%rax
  403f9d:	8b 7d b8             	mov    -0x48(%rbp),%edi
  403fa0:	8b 4d c4             	mov    -0x3c(%rbp),%ecx
  403fa3:	8b 55 c0             	mov    -0x40(%rbp),%edx
  403fa6:	48 8b b5 78 ff ff ff 	mov    -0x88(%rbp),%rsi
  403fad:	41 89 f8             	mov    %edi,%r8d
  403fb0:	48 89 c7             	mov    %rax,%rdi
  403fb3:	e8 e1 60 00 00       	callq  40a099 <pre_process_edge>
  403fb8:	48 8b 45 90          	mov    -0x70(%rbp),%rax
  403fbc:	8b 7d b8             	mov    -0x48(%rbp),%edi
  403fbf:	8b 4d c4             	mov    -0x3c(%rbp),%ecx
  403fc2:	8b 55 c0             	mov    -0x40(%rbp),%edx
  403fc5:	48 8b b5 70 ff ff ff 	mov    -0x90(%rbp),%rsi
  403fcc:	41 89 f8             	mov    %edi,%r8d
  403fcf:	48 89 c7             	mov    %rax,%rdi
  403fd2:	e8 c2 60 00 00       	callq  40a099 <pre_process_edge>
  403fd7:	48 8b 45 80          	mov    -0x80(%rbp),%rax
  403fdb:	8b 7d b8             	mov    -0x48(%rbp),%edi
  403fde:	8b 4d c4             	mov    -0x3c(%rbp),%ecx
  403fe1:	8b 55 c0             	mov    -0x40(%rbp),%edx
  403fe4:	48 8b b5 68 ff ff ff 	mov    -0x98(%rbp),%rsi
  403feb:	41 89 f8             	mov    %edi,%r8d
  403fee:	48 89 c7             	mov    %rax,%rdi
  403ff1:	e8 a3 60 00 00       	callq  40a099 <pre_process_edge>
  403ff6:	8b 7d b0             	mov    -0x50(%rbp),%edi
  403ff9:	8b 4d bc             	mov    -0x44(%rbp),%ecx
  403ffc:	8b 55 b8             	mov    -0x48(%rbp),%edx
  403fff:	48 8b b5 60 ff ff ff 	mov    -0xa0(%rbp),%rsi
  404006:	48 8b 85 78 ff ff ff 	mov    -0x88(%rbp),%rax
  40400d:	41 89 f8             	mov    %edi,%r8d
  404010:	48 89 c7             	mov    %rax,%rdi
  404013:	e8 55 79 00 00       	callq  40b96d <kernel_edge>
  404018:	8b 7d b0             	mov    -0x50(%rbp),%edi
  40401b:	8b 4d bc             	mov    -0x44(%rbp),%ecx
  40401e:	8b 55 b8             	mov    -0x48(%rbp),%edx
  404021:	48 8b b5 58 ff ff ff 	mov    -0xa8(%rbp),%rsi
  404028:	48 8b 85 70 ff ff ff 	mov    -0x90(%rbp),%rax
  40402f:	41 89 f8             	mov    %edi,%r8d
  404032:	48 89 c7             	mov    %rax,%rdi
  404035:	e8 33 79 00 00       	callq  40b96d <kernel_edge>
  40403a:	8b 7d b0             	mov    -0x50(%rbp),%edi
  40403d:	8b 4d bc             	mov    -0x44(%rbp),%ecx
  404040:	8b 55 b8             	mov    -0x48(%rbp),%edx
  404043:	48 8b b5 50 ff ff ff 	mov    -0xb0(%rbp),%rsi
  40404a:	48 8b 85 68 ff ff ff 	mov    -0x98(%rbp),%rax
  404051:	41 89 f8             	mov    %edi,%r8d
  404054:	48 89 c7             	mov    %rax,%rdi
  404057:	e8 11 79 00 00       	callq  40b96d <kernel_edge>
  40405c:	8b 4d b4             	mov    -0x4c(%rbp),%ecx
  40405f:	8b 55 b0             	mov    -0x50(%rbp),%edx
  404062:	48 8b b5 48 ff ff ff 	mov    -0xb8(%rbp),%rsi
  404069:	48 8b 85 60 ff ff ff 	mov    -0xa0(%rbp),%rax
  404070:	48 89 c7             	mov    %rax,%rdi
  404073:	e8 c1 a0 00 00       	callq  40e139 <post_process_edge>
  404078:	8b 4d b4             	mov    -0x4c(%rbp),%ecx
  40407b:	8b 55 b0             	mov    -0x50(%rbp),%edx
  40407e:	48 8b b5 40 ff ff ff 	mov    -0xc0(%rbp),%rsi
  404085:	48 8b 85 58 ff ff ff 	mov    -0xa8(%rbp),%rax
  40408c:	48 89 c7             	mov    %rax,%rdi
  40408f:	e8 a5 a0 00 00       	callq  40e139 <post_process_edge>
  404094:	8b 4d b4             	mov    -0x4c(%rbp),%ecx
  404097:	8b 55 b0             	mov    -0x50(%rbp),%edx
  40409a:	48 8b b5 38 ff ff ff 	mov    -0xc8(%rbp),%rsi
  4040a1:	48 8b 85 50 ff ff ff 	mov    -0xb0(%rbp),%rax
  4040a8:	48 89 c7             	mov    %rax,%rdi
  4040ab:	e8 89 a0 00 00       	callq  40e139 <post_process_edge>
  4040b0:	c7 45 cc 00 00 00 00 	movl   $0x0,-0x34(%rbp)
  4040b7:	e9 2d 02 00 00       	jmpq   4042e9 <Edge_Turbo+0x760>
  4040bc:	c7 45 c8 00 00 00 00 	movl   $0x0,-0x38(%rbp)
  4040c3:	e9 11 02 00 00       	jmpq   4042d9 <Edge_Turbo+0x750>
  4040c8:	8b 45 cc             	mov    -0x34(%rbp),%eax
  4040cb:	0f af 45 b0          	imul   -0x50(%rbp),%eax
  4040cf:	89 c2                	mov    %eax,%edx
  4040d1:	8b 45 c8             	mov    -0x38(%rbp),%eax
  4040d4:	01 d0                	add    %edx,%eax
  4040d6:	48 98                	cltq   
  4040d8:	48 8d 14 c5 00 00 00 	lea    0x0(,%rax,8),%rdx
  4040df:	00 
  4040e0:	48 8b 85 48 ff ff ff 	mov    -0xb8(%rbp),%rax
  4040e7:	48 01 d0             	add    %rdx,%rax
  4040ea:	c5 fb 10 00          	vmovsd (%rax),%xmm0
  4040ee:	c5 f9 2e 05 b2 d1 00 	vucomisd 0xd1b2(%rip),%xmm0        # 4112a8 <__PRETTY_FUNCTION__.6560+0x38>
  4040f5:	00 
  4040f6:	76 07                	jbe    4040ff <Edge_Turbo+0x576>
  4040f8:	b8 ff 00 00 00       	mov    $0xff,%eax
  4040fd:	eb 64                	jmp    404163 <Edge_Turbo+0x5da>
  4040ff:	8b 45 cc             	mov    -0x34(%rbp),%eax
  404102:	0f af 45 b0          	imul   -0x50(%rbp),%eax
  404106:	89 c2                	mov    %eax,%edx
  404108:	8b 45 c8             	mov    -0x38(%rbp),%eax
  40410b:	01 d0                	add    %edx,%eax
  40410d:	48 98                	cltq   
  40410f:	48 8d 14 c5 00 00 00 	lea    0x0(,%rax,8),%rdx
  404116:	00 
  404117:	48 8b 85 48 ff ff ff 	mov    -0xb8(%rbp),%rax
  40411e:	48 01 d0             	add    %rdx,%rax
  404121:	c5 fb 10 08          	vmovsd (%rax),%xmm1
  404125:	c5 f9 57 c0          	vxorpd %xmm0,%xmm0,%xmm0
  404129:	c5 f9 2e c1          	vucomisd %xmm1,%xmm0
  40412d:	76 07                	jbe    404136 <Edge_Turbo+0x5ad>
  40412f:	b8 00 00 00 00       	mov    $0x0,%eax
  404134:	eb 2d                	jmp    404163 <Edge_Turbo+0x5da>
  404136:	8b 45 cc             	mov    -0x34(%rbp),%eax
  404139:	0f af 45 b0          	imul   -0x50(%rbp),%eax
  40413d:	89 c2                	mov    %eax,%edx
  40413f:	8b 45 c8             	mov    -0x38(%rbp),%eax
  404142:	01 d0                	add    %edx,%eax
  404144:	48 98                	cltq   
  404146:	48 8d 14 c5 00 00 00 	lea    0x0(,%rax,8),%rdx
  40414d:	00 
  40414e:	48 8b 85 48 ff ff ff 	mov    -0xb8(%rbp),%rax
  404155:	48 01 d0             	add    %rdx,%rax
  404158:	c5 fb 10 00          	vmovsd (%rax),%xmm0
  40415c:	c5 fb 2c c0          	vcvttsd2si %xmm0,%eax
  404160:	0f b6 c0             	movzbl %al,%eax
  404163:	8b 55 cc             	mov    -0x34(%rbp),%edx
  404166:	8b 75 c8             	mov    -0x38(%rbp),%esi
  404169:	48 8b bd 28 ff ff ff 	mov    -0xd8(%rbp),%rdi
  404170:	89 c1                	mov    %eax,%ecx
  404172:	e8 c8 d8 ff ff       	callq  401a3f <SetPixelR>
  404177:	8b 45 cc             	mov    -0x34(%rbp),%eax
  40417a:	0f af 45 b0          	imul   -0x50(%rbp),%eax
  40417e:	89 c2                	mov    %eax,%edx
  404180:	8b 45 c8             	mov    -0x38(%rbp),%eax
  404183:	01 d0                	add    %edx,%eax
  404185:	48 98                	cltq   
  404187:	48 8d 14 c5 00 00 00 	lea    0x0(,%rax,8),%rdx
  40418e:	00 
  40418f:	48 8b 85 40 ff ff ff 	mov    -0xc0(%rbp),%rax
  404196:	48 01 d0             	add    %rdx,%rax
  404199:	c5 fb 10 00          	vmovsd (%rax),%xmm0
  40419d:	c5 f9 2e 05 03 d1 00 	vucomisd 0xd103(%rip),%xmm0        # 4112a8 <__PRETTY_FUNCTION__.6560+0x38>
  4041a4:	00 
  4041a5:	76 07                	jbe    4041ae <Edge_Turbo+0x625>
  4041a7:	b8 ff 00 00 00       	mov    $0xff,%eax
  4041ac:	eb 64                	jmp    404212 <Edge_Turbo+0x689>
  4041ae:	8b 45 cc             	mov    -0x34(%rbp),%eax
  4041b1:	0f af 45 b0          	imul   -0x50(%rbp),%eax
  4041b5:	89 c2                	mov    %eax,%edx
  4041b7:	8b 45 c8             	mov    -0x38(%rbp),%eax
  4041ba:	01 d0                	add    %edx,%eax
  4041bc:	48 98                	cltq   
  4041be:	48 8d 14 c5 00 00 00 	lea    0x0(,%rax,8),%rdx
  4041c5:	00 
  4041c6:	48 8b 85 40 ff ff ff 	mov    -0xc0(%rbp),%rax
  4041cd:	48 01 d0             	add    %rdx,%rax
  4041d0:	c5 fb 10 08          	vmovsd (%rax),%xmm1
  4041d4:	c5 f9 57 c0          	vxorpd %xmm0,%xmm0,%xmm0
  4041d8:	c5 f9 2e c1          	vucomisd %xmm1,%xmm0
  4041dc:	76 07                	jbe    4041e5 <Edge_Turbo+0x65c>
  4041de:	b8 00 00 00 00       	mov    $0x0,%eax
  4041e3:	eb 2d                	jmp    404212 <Edge_Turbo+0x689>
  4041e5:	8b 45 cc             	mov    -0x34(%rbp),%eax
  4041e8:	0f af 45 b0          	imul   -0x50(%rbp),%eax
  4041ec:	89 c2                	mov    %eax,%edx
  4041ee:	8b 45 c8             	mov    -0x38(%rbp),%eax
  4041f1:	01 d0                	add    %edx,%eax
  4041f3:	48 98                	cltq   
  4041f5:	48 8d 14 c5 00 00 00 	lea    0x0(,%rax,8),%rdx
  4041fc:	00 
  4041fd:	48 8b 85 40 ff ff ff 	mov    -0xc0(%rbp),%rax
  404204:	48 01 d0             	add    %rdx,%rax
  404207:	c5 fb 10 00          	vmovsd (%rax),%xmm0
  40420b:	c5 fb 2c c0          	vcvttsd2si %xmm0,%eax
  40420f:	0f b6 c0             	movzbl %al,%eax
  404212:	8b 55 cc             	mov    -0x34(%rbp),%edx
  404215:	8b 75 c8             	mov    -0x38(%rbp),%esi
  404218:	48 8b bd 28 ff ff ff 	mov    -0xd8(%rbp),%rdi
  40421f:	89 c1                	mov    %eax,%ecx
  404221:	e8 c9 d8 ff ff       	callq  401aef <SetPixelG>
  404226:	8b 45 cc             	mov    -0x34(%rbp),%eax
  404229:	0f af 45 b0          	imul   -0x50(%rbp),%eax
  40422d:	89 c2                	mov    %eax,%edx
  40422f:	8b 45 c8             	mov    -0x38(%rbp),%eax
  404232:	01 d0                	add    %edx,%eax
  404234:	48 98                	cltq   
  404236:	48 8d 14 c5 00 00 00 	lea    0x0(,%rax,8),%rdx
  40423d:	00 
  40423e:	48 8b 85 38 ff ff ff 	mov    -0xc8(%rbp),%rax
  404245:	48 01 d0             	add    %rdx,%rax
  404248:	c5 fb 10 00          	vmovsd (%rax),%xmm0
  40424c:	c5 f9 2e 05 54 d0 00 	vucomisd 0xd054(%rip),%xmm0        # 4112a8 <__PRETTY_FUNCTION__.6560+0x38>
  404253:	00 
  404254:	76 07                	jbe    40425d <Edge_Turbo+0x6d4>
  404256:	b8 ff 00 00 00       	mov    $0xff,%eax
  40425b:	eb 64                	jmp    4042c1 <Edge_Turbo+0x738>
  40425d:	8b 45 cc             	mov    -0x34(%rbp),%eax
  404260:	0f af 45 b0          	imul   -0x50(%rbp),%eax
  404264:	89 c2                	mov    %eax,%edx
  404266:	8b 45 c8             	mov    -0x38(%rbp),%eax
  404269:	01 d0                	add    %edx,%eax
  40426b:	48 98                	cltq   
  40426d:	48 8d 14 c5 00 00 00 	lea    0x0(,%rax,8),%rdx
  404274:	00 
  404275:	48 8b 85 38 ff ff ff 	mov    -0xc8(%rbp),%rax
  40427c:	48 01 d0             	add    %rdx,%rax
  40427f:	c5 fb 10 08          	vmovsd (%rax),%xmm1
  404283:	c5 f9 57 c0          	vxorpd %xmm0,%xmm0,%xmm0
  404287:	c5 f9 2e c1          	vucomisd %xmm1,%xmm0
  40428b:	76 07                	jbe    404294 <Edge_Turbo+0x70b>
  40428d:	b8 00 00 00 00       	mov    $0x0,%eax
  404292:	eb 2d                	jmp    4042c1 <Edge_Turbo+0x738>
  404294:	8b 45 cc             	mov    -0x34(%rbp),%eax
  404297:	0f af 45 b0          	imul   -0x50(%rbp),%eax
  40429b:	89 c2                	mov    %eax,%edx
  40429d:	8b 45 c8             	mov    -0x38(%rbp),%eax
  4042a0:	01 d0                	add    %edx,%eax
  4042a2:	48 98                	cltq   
  4042a4:	48 8d 14 c5 00 00 00 	lea    0x0(,%rax,8),%rdx
  4042ab:	00 
  4042ac:	48 8b 85 38 ff ff ff 	mov    -0xc8(%rbp),%rax
  4042b3:	48 01 d0             	add    %rdx,%rax
  4042b6:	c5 fb 10 00          	vmovsd (%rax),%xmm0
  4042ba:	c5 fb 2c c0          	vcvttsd2si %xmm0,%eax
  4042be:	0f b6 c0             	movzbl %al,%eax
  4042c1:	8b 55 cc             	mov    -0x34(%rbp),%edx
  4042c4:	8b 75 c8             	mov    -0x38(%rbp),%esi
  4042c7:	48 8b bd 28 ff ff ff 	mov    -0xd8(%rbp),%rdi
  4042ce:	89 c1                	mov    %eax,%ecx
  4042d0:	e8 ca d8 ff ff       	callq  401b9f <SetPixelB>
  4042d5:	83 45 c8 01          	addl   $0x1,-0x38(%rbp)
  4042d9:	8b 45 c8             	mov    -0x38(%rbp),%eax
  4042dc:	3b 45 b0             	cmp    -0x50(%rbp),%eax
  4042df:	0f 8c e3 fd ff ff    	jl     4040c8 <Edge_Turbo+0x53f>
  4042e5:	83 45 cc 01          	addl   $0x1,-0x34(%rbp)
  4042e9:	8b 45 cc             	mov    -0x34(%rbp),%eax
  4042ec:	3b 45 b4             	cmp    -0x4c(%rbp),%eax
  4042ef:	0f 8c c7 fd ff ff    	jl     4040bc <Edge_Turbo+0x533>
  4042f5:	48 8b 85 78 ff ff ff 	mov    -0x88(%rbp),%rax
  4042fc:	48 89 c7             	mov    %rax,%rdi
  4042ff:	e8 cc c6 ff ff       	callq  4009d0 <free@plt>
  404304:	48 8b 85 70 ff ff ff 	mov    -0x90(%rbp),%rax
  40430b:	48 89 c7             	mov    %rax,%rdi
  40430e:	e8 bd c6 ff ff       	callq  4009d0 <free@plt>
  404313:	48 8b 85 68 ff ff ff 	mov    -0x98(%rbp),%rax
  40431a:	48 89 c7             	mov    %rax,%rdi
  40431d:	e8 ae c6 ff ff       	callq  4009d0 <free@plt>
  404322:	48 8b 85 48 ff ff ff 	mov    -0xb8(%rbp),%rax
  404329:	48 89 c7             	mov    %rax,%rdi
  40432c:	e8 9f c6 ff ff       	callq  4009d0 <free@plt>
  404331:	48 8b 85 40 ff ff ff 	mov    -0xc0(%rbp),%rax
  404338:	48 89 c7             	mov    %rax,%rdi
  40433b:	e8 90 c6 ff ff       	callq  4009d0 <free@plt>
  404340:	48 8b 85 38 ff ff ff 	mov    -0xc8(%rbp),%rax
  404347:	48 89 c7             	mov    %rax,%rdi
  40434a:	e8 81 c6 ff ff       	callq  4009d0 <free@plt>
  40434f:	48 8b 85 28 ff ff ff 	mov    -0xd8(%rbp),%rax
  404356:	48 8b a5 20 ff ff ff 	mov    -0xe0(%rbp),%rsp
  40435d:	48 8d 65 d8          	lea    -0x28(%rbp),%rsp
  404361:	5b                   	pop    %rbx
  404362:	41 5c                	pop    %r12
  404364:	41 5d                	pop    %r13
  404366:	41 5e                	pop    %r14
  404368:	41 5f                	pop    %r15
  40436a:	5d                   	pop    %rbp
  40436b:	c3                   	retq   

000000000040436c <MotionBlur_Turbo>:
  40436c:	4c 8d 54 24 08       	lea    0x8(%rsp),%r10
  404371:	48 83 e4 e0          	and    $0xffffffffffffffe0,%rsp
  404375:	41 ff 72 f8          	pushq  -0x8(%r10)
  404379:	55                   	push   %rbp
  40437a:	48 89 e5             	mov    %rsp,%rbp
  40437d:	41 57                	push   %r15
  40437f:	41 56                	push   %r14
  404381:	41 55                	push   %r13
  404383:	41 54                	push   %r12
  404385:	41 52                	push   %r10
  404387:	53                   	push   %rbx
  404388:	48 81 ec b0 35 00 00 	sub    $0x35b0,%rsp
  40438f:	48 89 bd c8 ca ff ff 	mov    %rdi,-0x3538(%rbp)
  404396:	48 89 e0             	mov    %rsp,%rax
  404399:	48 89 85 c0 ca ff ff 	mov    %rax,-0x3540(%rbp)
  4043a0:	48 83 bd c8 ca ff ff 	cmpq   $0x0,-0x3538(%rbp)
  4043a7:	00 
  4043a8:	75 19                	jne    4043c3 <MotionBlur_Turbo+0x57>
  4043aa:	b9 70 12 41 00       	mov    $0x411270,%ecx
  4043af:	ba c7 00 00 00       	mov    $0xc7,%edx
  4043b4:	be 40 12 41 00       	mov    $0x411240,%esi
  4043b9:	bf 4d 12 41 00       	mov    $0x41124d,%edi
  4043be:	e8 ad c6 ff ff       	callq  400a70 <__assert_fail@plt>
  4043c3:	48 8b 85 c8 ca ff ff 	mov    -0x3538(%rbp),%rax
  4043ca:	48 89 c7             	mov    %rax,%rdi
  4043cd:	e8 2e da ff ff       	callq  401e00 <ImageHeight>
  4043d2:	89 45 c4             	mov    %eax,-0x3c(%rbp)
  4043d5:	48 8b 85 c8 ca ff ff 	mov    -0x3538(%rbp),%rax
  4043dc:	48 89 c7             	mov    %rax,%rdi
  4043df:	e8 e8 d9 ff ff       	callq  401dcc <ImageWidth>
  4043e4:	89 45 c0             	mov    %eax,-0x40(%rbp)
  4043e7:	8b 45 c4             	mov    -0x3c(%rbp),%eax
  4043ea:	0f af 45 c0          	imul   -0x40(%rbp),%eax
  4043ee:	89 45 bc             	mov    %eax,-0x44(%rbp)
  4043f1:	8b 55 bc             	mov    -0x44(%rbp),%edx
  4043f4:	48 63 c2             	movslq %edx,%rax
  4043f7:	48 83 e8 01          	sub    $0x1,%rax
  4043fb:	48 89 45 b0          	mov    %rax,-0x50(%rbp)
  4043ff:	48 63 c2             	movslq %edx,%rax
  404402:	49 89 c4             	mov    %rax,%r12
  404405:	41 bd 00 00 00 00    	mov    $0x0,%r13d
  40440b:	48 63 c2             	movslq %edx,%rax
  40440e:	49 89 c6             	mov    %rax,%r14
  404411:	41 bf 00 00 00 00    	mov    $0x0,%r15d
  404417:	48 63 c2             	movslq %edx,%rax
  40441a:	48 c1 e0 03          	shl    $0x3,%rax
  40441e:	48 8d 50 07          	lea    0x7(%rax),%rdx
  404422:	b8 10 00 00 00       	mov    $0x10,%eax
  404427:	48 83 e8 01          	sub    $0x1,%rax
  40442b:	48 01 d0             	add    %rdx,%rax
  40442e:	bb 10 00 00 00       	mov    $0x10,%ebx
  404433:	ba 00 00 00 00       	mov    $0x0,%edx
  404438:	48 f7 f3             	div    %rbx
  40443b:	48 6b c0 10          	imul   $0x10,%rax,%rax
  40443f:	48 29 c4             	sub    %rax,%rsp
  404442:	48 89 e0             	mov    %rsp,%rax
  404445:	48 83 c0 07          	add    $0x7,%rax
  404449:	48 c1 e8 03          	shr    $0x3,%rax
  40444d:	48 c1 e0 03          	shl    $0x3,%rax
  404451:	48 89 45 a8          	mov    %rax,-0x58(%rbp)
  404455:	8b 55 bc             	mov    -0x44(%rbp),%edx
  404458:	48 63 c2             	movslq %edx,%rax
  40445b:	48 83 e8 01          	sub    $0x1,%rax
  40445f:	48 89 45 a0          	mov    %rax,-0x60(%rbp)
  404463:	48 63 c2             	movslq %edx,%rax
  404466:	48 89 85 b0 ca ff ff 	mov    %rax,-0x3550(%rbp)
  40446d:	48 c7 85 b8 ca ff ff 	movq   $0x0,-0x3548(%rbp)
  404474:	00 00 00 00 
  404478:	48 63 c2             	movslq %edx,%rax
  40447b:	48 89 85 a0 ca ff ff 	mov    %rax,-0x3560(%rbp)
  404482:	48 c7 85 a8 ca ff ff 	movq   $0x0,-0x3558(%rbp)
  404489:	00 00 00 00 
  40448d:	48 63 c2             	movslq %edx,%rax
  404490:	48 c1 e0 03          	shl    $0x3,%rax
  404494:	48 8d 50 07          	lea    0x7(%rax),%rdx
  404498:	b8 10 00 00 00       	mov    $0x10,%eax
  40449d:	48 83 e8 01          	sub    $0x1,%rax
  4044a1:	48 01 d0             	add    %rdx,%rax
  4044a4:	bb 10 00 00 00       	mov    $0x10,%ebx
  4044a9:	ba 00 00 00 00       	mov    $0x0,%edx
  4044ae:	48 f7 f3             	div    %rbx
  4044b1:	48 6b c0 10          	imul   $0x10,%rax,%rax
  4044b5:	48 29 c4             	sub    %rax,%rsp
  4044b8:	48 89 e0             	mov    %rsp,%rax
  4044bb:	48 83 c0 07          	add    $0x7,%rax
  4044bf:	48 c1 e8 03          	shr    $0x3,%rax
  4044c3:	48 c1 e0 03          	shl    $0x3,%rax
  4044c7:	48 89 45 98          	mov    %rax,-0x68(%rbp)
  4044cb:	8b 55 bc             	mov    -0x44(%rbp),%edx
  4044ce:	48 63 c2             	movslq %edx,%rax
  4044d1:	48 83 e8 01          	sub    $0x1,%rax
  4044d5:	48 89 45 90          	mov    %rax,-0x70(%rbp)
  4044d9:	48 63 c2             	movslq %edx,%rax
  4044dc:	48 89 85 90 ca ff ff 	mov    %rax,-0x3570(%rbp)
  4044e3:	48 c7 85 98 ca ff ff 	movq   $0x0,-0x3568(%rbp)
  4044ea:	00 00 00 00 
  4044ee:	48 63 c2             	movslq %edx,%rax
  4044f1:	48 89 85 80 ca ff ff 	mov    %rax,-0x3580(%rbp)
  4044f8:	48 c7 85 88 ca ff ff 	movq   $0x0,-0x3578(%rbp)
  4044ff:	00 00 00 00 
  404503:	48 63 c2             	movslq %edx,%rax
  404506:	48 c1 e0 03          	shl    $0x3,%rax
  40450a:	48 8d 50 07          	lea    0x7(%rax),%rdx
  40450e:	b8 10 00 00 00       	mov    $0x10,%eax
  404513:	48 83 e8 01          	sub    $0x1,%rax
  404517:	48 01 d0             	add    %rdx,%rax
  40451a:	bb 10 00 00 00       	mov    $0x10,%ebx
  40451f:	ba 00 00 00 00       	mov    $0x0,%edx
  404524:	48 f7 f3             	div    %rbx
  404527:	48 6b c0 10          	imul   $0x10,%rax,%rax
  40452b:	48 29 c4             	sub    %rax,%rsp
  40452e:	48 89 e0             	mov    %rsp,%rax
  404531:	48 83 c0 07          	add    $0x7,%rax
  404535:	48 c1 e8 03          	shr    $0x3,%rax
  404539:	48 c1 e0 03          	shl    $0x3,%rax
  40453d:	48 89 45 88          	mov    %rax,-0x78(%rbp)
  404541:	8b 55 bc             	mov    -0x44(%rbp),%edx
  404544:	48 63 c2             	movslq %edx,%rax
  404547:	48 83 e8 01          	sub    $0x1,%rax
  40454b:	48 89 45 80          	mov    %rax,-0x80(%rbp)
  40454f:	48 63 c2             	movslq %edx,%rax
  404552:	48 89 85 70 ca ff ff 	mov    %rax,-0x3590(%rbp)
  404559:	48 c7 85 78 ca ff ff 	movq   $0x0,-0x3588(%rbp)
  404560:	00 00 00 00 
  404564:	48 63 c2             	movslq %edx,%rax
  404567:	48 89 85 60 ca ff ff 	mov    %rax,-0x35a0(%rbp)
  40456e:	48 c7 85 68 ca ff ff 	movq   $0x0,-0x3598(%rbp)
  404575:	00 00 00 00 
  404579:	48 63 c2             	movslq %edx,%rax
  40457c:	48 c1 e0 03          	shl    $0x3,%rax
  404580:	48 8d 50 07          	lea    0x7(%rax),%rdx
  404584:	b8 10 00 00 00       	mov    $0x10,%eax
  404589:	48 83 e8 01          	sub    $0x1,%rax
  40458d:	48 01 d0             	add    %rdx,%rax
  404590:	bb 10 00 00 00       	mov    $0x10,%ebx
  404595:	ba 00 00 00 00       	mov    $0x0,%edx
  40459a:	48 f7 f3             	div    %rbx
  40459d:	48 6b c0 10          	imul   $0x10,%rax,%rax
  4045a1:	48 29 c4             	sub    %rax,%rsp
  4045a4:	48 89 e0             	mov    %rsp,%rax
  4045a7:	48 83 c0 07          	add    $0x7,%rax
  4045ab:	48 c1 e8 03          	shr    $0x3,%rax
  4045af:	48 c1 e0 03          	shl    $0x3,%rax
  4045b3:	48 89 85 78 ff ff ff 	mov    %rax,-0x88(%rbp)
  4045ba:	8b 45 bc             	mov    -0x44(%rbp),%eax
  4045bd:	48 63 d0             	movslq %eax,%rdx
  4045c0:	48 83 ea 01          	sub    $0x1,%rdx
  4045c4:	48 89 95 70 ff ff ff 	mov    %rdx,-0x90(%rbp)
  4045cb:	48 63 d0             	movslq %eax,%rdx
  4045ce:	48 89 95 50 ca ff ff 	mov    %rdx,-0x35b0(%rbp)
  4045d5:	48 c7 85 58 ca ff ff 	movq   $0x0,-0x35a8(%rbp)
  4045dc:	00 00 00 00 
  4045e0:	48 63 d0             	movslq %eax,%rdx
  4045e3:	48 89 95 40 ca ff ff 	mov    %rdx,-0x35c0(%rbp)
  4045ea:	48 c7 85 48 ca ff ff 	movq   $0x0,-0x35b8(%rbp)
  4045f1:	00 00 00 00 
  4045f5:	48 98                	cltq   
  4045f7:	48 c1 e0 03          	shl    $0x3,%rax
  4045fb:	48 8d 50 07          	lea    0x7(%rax),%rdx
  4045ff:	b8 10 00 00 00       	mov    $0x10,%eax
  404604:	48 83 e8 01          	sub    $0x1,%rax
  404608:	48 01 d0             	add    %rdx,%rax
  40460b:	bf 10 00 00 00       	mov    $0x10,%edi
  404610:	ba 00 00 00 00       	mov    $0x0,%edx
  404615:	48 f7 f7             	div    %rdi
  404618:	48 6b c0 10          	imul   $0x10,%rax,%rax
  40461c:	48 29 c4             	sub    %rax,%rsp
  40461f:	48 89 e0             	mov    %rsp,%rax
  404622:	48 83 c0 07          	add    $0x7,%rax
  404626:	48 c1 e8 03          	shr    $0x3,%rax
  40462a:	48 c1 e0 03          	shl    $0x3,%rax
  40462e:	48 89 85 68 ff ff ff 	mov    %rax,-0x98(%rbp)
  404635:	8b 45 bc             	mov    -0x44(%rbp),%eax
  404638:	48 63 d0             	movslq %eax,%rdx
  40463b:	48 83 ea 01          	sub    $0x1,%rdx
  40463f:	48 89 95 60 ff ff ff 	mov    %rdx,-0xa0(%rbp)
  404646:	48 63 d0             	movslq %eax,%rdx
  404649:	48 89 95 30 ca ff ff 	mov    %rdx,-0x35d0(%rbp)
  404650:	48 c7 85 38 ca ff ff 	movq   $0x0,-0x35c8(%rbp)
  404657:	00 00 00 00 
  40465b:	48 63 d0             	movslq %eax,%rdx
  40465e:	48 89 95 20 ca ff ff 	mov    %rdx,-0x35e0(%rbp)
  404665:	48 c7 85 28 ca ff ff 	movq   $0x0,-0x35d8(%rbp)
  40466c:	00 00 00 00 
  404670:	48 98                	cltq   
  404672:	48 c1 e0 03          	shl    $0x3,%rax
  404676:	48 8d 50 07          	lea    0x7(%rax),%rdx
  40467a:	b8 10 00 00 00       	mov    $0x10,%eax
  40467f:	48 83 e8 01          	sub    $0x1,%rax
  404683:	48 01 d0             	add    %rdx,%rax
  404686:	bb 10 00 00 00       	mov    $0x10,%ebx
  40468b:	ba 00 00 00 00       	mov    $0x0,%edx
  404690:	48 f7 f3             	div    %rbx
  404693:	48 6b c0 10          	imul   $0x10,%rax,%rax
  404697:	48 29 c4             	sub    %rax,%rsp
  40469a:	48 89 e0             	mov    %rsp,%rax
  40469d:	48 83 c0 07          	add    $0x7,%rax
  4046a1:	48 c1 e8 03          	shr    $0x3,%rax
  4046a5:	48 c1 e0 03          	shl    $0x3,%rax
  4046a9:	48 89 85 58 ff ff ff 	mov    %rax,-0xa8(%rbp)
  4046b0:	c5 f9 57 c0          	vxorpd %xmm0,%xmm0,%xmm0
  4046b4:	c5 fd 29 85 30 ff ff 	vmovapd %ymm0,-0xd0(%rbp)
  4046bb:	ff 
  4046bc:	c5 f9 57 c0          	vxorpd %xmm0,%xmm0,%xmm0
  4046c0:	c5 fd 29 85 10 ff ff 	vmovapd %ymm0,-0xf0(%rbp)
  4046c7:	ff 
  4046c8:	c5 f9 57 c0          	vxorpd %xmm0,%xmm0,%xmm0
  4046cc:	c5 fd 29 85 f0 fe ff 	vmovapd %ymm0,-0x110(%rbp)
  4046d3:	ff 
  4046d4:	c5 f9 57 c0          	vxorpd %xmm0,%xmm0,%xmm0
  4046d8:	c5 fd 29 85 d0 fe ff 	vmovapd %ymm0,-0x130(%rbp)
  4046df:	ff 
  4046e0:	c5 f9 57 c0          	vxorpd %xmm0,%xmm0,%xmm0
  4046e4:	c5 fd 29 85 b0 fe ff 	vmovapd %ymm0,-0x150(%rbp)
  4046eb:	ff 
  4046ec:	c5 f9 57 c0          	vxorpd %xmm0,%xmm0,%xmm0
  4046f0:	c5 fd 29 85 90 fe ff 	vmovapd %ymm0,-0x170(%rbp)
  4046f7:	ff 
  4046f8:	c5 f9 57 c0          	vxorpd %xmm0,%xmm0,%xmm0
  4046fc:	c5 fd 29 85 70 fe ff 	vmovapd %ymm0,-0x190(%rbp)
  404703:	ff 
  404704:	c5 f9 57 c0          	vxorpd %xmm0,%xmm0,%xmm0
  404708:	c5 fd 29 85 50 fe ff 	vmovapd %ymm0,-0x1b0(%rbp)
  40470f:	ff 
  404710:	c5 f9 57 c0          	vxorpd %xmm0,%xmm0,%xmm0
  404714:	c5 fd 29 85 30 fe ff 	vmovapd %ymm0,-0x1d0(%rbp)
  40471b:	ff 
  40471c:	c5 f9 57 c0          	vxorpd %xmm0,%xmm0,%xmm0
  404720:	c5 fd 29 85 10 fe ff 	vmovapd %ymm0,-0x1f0(%rbp)
  404727:	ff 
  404728:	c5 f9 57 c0          	vxorpd %xmm0,%xmm0,%xmm0
  40472c:	c5 fd 29 85 f0 fd ff 	vmovapd %ymm0,-0x210(%rbp)
  404733:	ff 
  404734:	c7 45 cc 00 00 00 00 	movl   $0x0,-0x34(%rbp)
  40473b:	e9 e0 00 00 00       	jmpq   404820 <MotionBlur_Turbo+0x4b4>
  404740:	c7 45 c8 00 00 00 00 	movl   $0x0,-0x38(%rbp)
  404747:	e9 c4 00 00 00       	jmpq   404810 <MotionBlur_Turbo+0x4a4>
  40474c:	8b 45 cc             	mov    -0x34(%rbp),%eax
  40474f:	0f af 45 c0          	imul   -0x40(%rbp),%eax
  404753:	89 c2                	mov    %eax,%edx
  404755:	8b 45 c8             	mov    -0x38(%rbp),%eax
  404758:	8d 1c 02             	lea    (%rdx,%rax,1),%ebx
  40475b:	8b 55 cc             	mov    -0x34(%rbp),%edx
  40475e:	8b 4d c8             	mov    -0x38(%rbp),%ecx
  404761:	48 8b 85 c8 ca ff ff 	mov    -0x3538(%rbp),%rax
  404768:	89 ce                	mov    %ecx,%esi
  40476a:	48 89 c7             	mov    %rax,%rdi
  40476d:	e8 cc d0 ff ff       	callq  40183e <GetPixelR>
  404772:	c5 fb 11 85 b0 ca ff 	vmovsd %xmm0,-0x3550(%rbp)
  404779:	ff 
  40477a:	48 8b 85 b0 ca ff ff 	mov    -0x3550(%rbp),%rax
  404781:	48 8b 55 a8          	mov    -0x58(%rbp),%rdx
  404785:	48 63 cb             	movslq %ebx,%rcx
  404788:	48 89 04 ca          	mov    %rax,(%rdx,%rcx,8)
  40478c:	8b 45 cc             	mov    -0x34(%rbp),%eax
  40478f:	0f af 45 c0          	imul   -0x40(%rbp),%eax
  404793:	89 c2                	mov    %eax,%edx
  404795:	8b 45 c8             	mov    -0x38(%rbp),%eax
  404798:	8d 1c 02             	lea    (%rdx,%rax,1),%ebx
  40479b:	8b 55 cc             	mov    -0x34(%rbp),%edx
  40479e:	8b 4d c8             	mov    -0x38(%rbp),%ecx
  4047a1:	48 8b 85 c8 ca ff ff 	mov    -0x3538(%rbp),%rax
  4047a8:	89 ce                	mov    %ecx,%esi
  4047aa:	48 89 c7             	mov    %rax,%rdi
  4047ad:	e8 37 d1 ff ff       	callq  4018e9 <GetPixelG>
  4047b2:	c5 fb 11 85 b0 ca ff 	vmovsd %xmm0,-0x3550(%rbp)
  4047b9:	ff 
  4047ba:	48 8b 85 b0 ca ff ff 	mov    -0x3550(%rbp),%rax
  4047c1:	48 8b 55 98          	mov    -0x68(%rbp),%rdx
  4047c5:	48 63 cb             	movslq %ebx,%rcx
  4047c8:	48 89 04 ca          	mov    %rax,(%rdx,%rcx,8)
  4047cc:	8b 45 cc             	mov    -0x34(%rbp),%eax
  4047cf:	0f af 45 c0          	imul   -0x40(%rbp),%eax
  4047d3:	89 c2                	mov    %eax,%edx
  4047d5:	8b 45 c8             	mov    -0x38(%rbp),%eax
  4047d8:	8d 1c 02             	lea    (%rdx,%rax,1),%ebx
  4047db:	8b 55 cc             	mov    -0x34(%rbp),%edx
  4047de:	8b 4d c8             	mov    -0x38(%rbp),%ecx
  4047e1:	48 8b 85 c8 ca ff ff 	mov    -0x3538(%rbp),%rax
  4047e8:	89 ce                	mov    %ecx,%esi
  4047ea:	48 89 c7             	mov    %rax,%rdi
  4047ed:	e8 a2 d1 ff ff       	callq  401994 <GetPixelB>
  4047f2:	c5 fb 11 85 b0 ca ff 	vmovsd %xmm0,-0x3550(%rbp)
  4047f9:	ff 
  4047fa:	48 8b 85 b0 ca ff ff 	mov    -0x3550(%rbp),%rax
  404801:	48 8b 55 88          	mov    -0x78(%rbp),%rdx
  404805:	48 63 cb             	movslq %ebx,%rcx
  404808:	48 89 04 ca          	mov    %rax,(%rdx,%rcx,8)
  40480c:	83 45 c8 01          	addl   $0x1,-0x38(%rbp)
  404810:	8b 45 c8             	mov    -0x38(%rbp),%eax
  404813:	3b 45 c0             	cmp    -0x40(%rbp),%eax
  404816:	0f 8c 30 ff ff ff    	jl     40474c <MotionBlur_Turbo+0x3e0>
  40481c:	83 45 cc 01          	addl   $0x1,-0x34(%rbp)
  404820:	8b 45 cc             	mov    -0x34(%rbp),%eax
  404823:	3b 45 c4             	cmp    -0x3c(%rbp),%eax
  404826:	0f 8c 14 ff ff ff    	jl     404740 <MotionBlur_Turbo+0x3d4>
  40482c:	48 b8 00 00 00 00 00 	movabs $0x3fe0000000000000,%rax
  404833:	00 e0 3f 
  404836:	48 89 85 e8 fd ff ff 	mov    %rax,-0x218(%rbp)
  40483d:	48 b8 00 00 00 00 00 	movabs $0x3fe0000000000000,%rax
  404844:	00 e0 3f 
  404847:	48 89 85 e0 fd ff ff 	mov    %rax,-0x220(%rbp)
  40484e:	48 b8 00 00 00 00 00 	movabs $0x3fe0000000000000,%rax
  404855:	00 e0 3f 
  404858:	48 89 85 d8 fd ff ff 	mov    %rax,-0x228(%rbp)
  40485f:	48 b8 00 00 00 00 00 	movabs $0x3fe0000000000000,%rax
  404866:	00 e0 3f 
  404869:	48 89 85 d0 fd ff ff 	mov    %rax,-0x230(%rbp)
  404870:	c5 fb 10 85 e8 fd ff 	vmovsd -0x218(%rbp),%xmm0
  404877:	ff 
  404878:	c5 fb 10 8d e0 fd ff 	vmovsd -0x220(%rbp),%xmm1
  40487f:	ff 
  404880:	c5 f1 14 c8          	vunpcklpd %xmm0,%xmm1,%xmm1
  404884:	c5 fb 10 85 d8 fd ff 	vmovsd -0x228(%rbp),%xmm0
  40488b:	ff 
  40488c:	c5 fb 10 95 d0 fd ff 	vmovsd -0x230(%rbp),%xmm2
  404893:	ff 
  404894:	c5 e9 14 c0          	vunpcklpd %xmm0,%xmm2,%xmm0
  404898:	c4 e3 7d 18 c1 01    	vinsertf128 $0x1,%xmm1,%ymm0,%ymm0
  40489e:	c5 fd 29 85 30 ff ff 	vmovapd %ymm0,-0xd0(%rbp)
  4048a5:	ff 
  4048a6:	48 b8 55 55 55 55 55 	movabs $0x3fc5555555555555,%rax
  4048ad:	55 c5 3f 
  4048b0:	48 89 85 c8 fd ff ff 	mov    %rax,-0x238(%rbp)
  4048b7:	48 b8 55 55 55 55 55 	movabs $0x3fc5555555555555,%rax
  4048be:	55 c5 3f 
  4048c1:	48 89 85 c0 fd ff ff 	mov    %rax,-0x240(%rbp)
  4048c8:	48 b8 55 55 55 55 55 	movabs $0x3fc5555555555555,%rax
  4048cf:	55 c5 3f 
  4048d2:	48 89 85 b8 fd ff ff 	mov    %rax,-0x248(%rbp)
  4048d9:	48 b8 55 55 55 55 55 	movabs $0x3fc5555555555555,%rax
  4048e0:	55 c5 3f 
  4048e3:	48 89 85 b0 fd ff ff 	mov    %rax,-0x250(%rbp)
  4048ea:	c5 fb 10 85 c8 fd ff 	vmovsd -0x238(%rbp),%xmm0
  4048f1:	ff 
  4048f2:	c5 fb 10 8d c0 fd ff 	vmovsd -0x240(%rbp),%xmm1
  4048f9:	ff 
  4048fa:	c5 f1 14 c8          	vunpcklpd %xmm0,%xmm1,%xmm1
  4048fe:	c5 fb 10 85 b8 fd ff 	vmovsd -0x248(%rbp),%xmm0
  404905:	ff 
  404906:	c5 fb 10 95 b0 fd ff 	vmovsd -0x250(%rbp),%xmm2
  40490d:	ff 
  40490e:	c5 e9 14 c0          	vunpcklpd %xmm0,%xmm2,%xmm0
  404912:	c4 e3 7d 18 c1 01    	vinsertf128 $0x1,%xmm1,%ymm0,%ymm0
  404918:	c5 fd 29 85 10 ff ff 	vmovapd %ymm0,-0xf0(%rbp)
  40491f:	ff 
  404920:	48 8b 45 a8          	mov    -0x58(%rbp),%rax
  404924:	48 89 85 a8 fd ff ff 	mov    %rax,-0x258(%rbp)
  40492b:	48 8b 85 a8 fd ff ff 	mov    -0x258(%rbp),%rax
  404932:	c5 fd 10 00          	vmovupd (%rax),%ymm0
  404936:	c5 fd 29 85 f0 fe ff 	vmovapd %ymm0,-0x110(%rbp)
  40493d:	ff 
  40493e:	48 8b 45 a8          	mov    -0x58(%rbp),%rax
  404942:	48 83 c0 08          	add    $0x8,%rax
  404946:	48 89 85 a0 fd ff ff 	mov    %rax,-0x260(%rbp)
  40494d:	48 8b 85 a0 fd ff ff 	mov    -0x260(%rbp),%rax
  404954:	c5 fd 10 00          	vmovupd (%rax),%ymm0
  404958:	c5 fd 29 85 d0 fe ff 	vmovapd %ymm0,-0x130(%rbp)
  40495f:	ff 
  404960:	48 8b 45 a8          	mov    -0x58(%rbp),%rax
  404964:	48 83 c0 10          	add    $0x10,%rax
  404968:	48 89 85 98 fd ff ff 	mov    %rax,-0x268(%rbp)
  40496f:	48 8b 85 98 fd ff ff 	mov    -0x268(%rbp),%rax
  404976:	c5 fd 10 00          	vmovupd (%rax),%ymm0
  40497a:	c5 fd 29 85 b0 fe ff 	vmovapd %ymm0,-0x150(%rbp)
  404981:	ff 
  404982:	48 8b 45 a8          	mov    -0x58(%rbp),%rax
  404986:	48 83 c0 18          	add    $0x18,%rax
  40498a:	48 89 85 90 fd ff ff 	mov    %rax,-0x270(%rbp)
  404991:	48 8b 85 90 fd ff ff 	mov    -0x270(%rbp),%rax
  404998:	c5 fd 10 00          	vmovupd (%rax),%ymm0
  40499c:	c5 fd 29 85 90 fe ff 	vmovapd %ymm0,-0x170(%rbp)
  4049a3:	ff 
  4049a4:	c5 fd 28 85 f0 fe ff 	vmovapd -0x110(%rbp),%ymm0
  4049ab:	ff 
  4049ac:	c5 fd 29 85 70 fd ff 	vmovapd %ymm0,-0x290(%rbp)
  4049b3:	ff 
  4049b4:	c5 fd 28 85 30 ff ff 	vmovapd -0xd0(%rbp),%ymm0
  4049bb:	ff 
  4049bc:	c5 fd 29 85 50 fd ff 	vmovapd %ymm0,-0x2b0(%rbp)
  4049c3:	ff 
  4049c4:	c5 fd 28 85 70 fe ff 	vmovapd -0x190(%rbp),%ymm0
  4049cb:	ff 
  4049cc:	c5 fd 29 85 30 fd ff 	vmovapd %ymm0,-0x2d0(%rbp)
  4049d3:	ff 
  4049d4:	c5 fd 28 8d 50 fd ff 	vmovapd -0x2b0(%rbp),%ymm1
  4049db:	ff 
  4049dc:	c5 fd 28 85 30 fd ff 	vmovapd -0x2d0(%rbp),%ymm0
  4049e3:	ff 
  4049e4:	c4 e2 f5 b8 85 70 fd 	vfmadd231pd -0x290(%rbp),%ymm1,%ymm0
  4049eb:	ff ff 
  4049ed:	c5 fd 29 85 70 fe ff 	vmovapd %ymm0,-0x190(%rbp)
  4049f4:	ff 
  4049f5:	c5 fd 28 85 d0 fe ff 	vmovapd -0x130(%rbp),%ymm0
  4049fc:	ff 
  4049fd:	c5 fd 29 85 10 fd ff 	vmovapd %ymm0,-0x2f0(%rbp)
  404a04:	ff 
  404a05:	c5 fd 28 85 10 ff ff 	vmovapd -0xf0(%rbp),%ymm0
  404a0c:	ff 
  404a0d:	c5 fd 29 85 f0 fc ff 	vmovapd %ymm0,-0x310(%rbp)
  404a14:	ff 
  404a15:	c5 fd 28 85 70 fe ff 	vmovapd -0x190(%rbp),%ymm0
  404a1c:	ff 
  404a1d:	c5 fd 29 85 d0 fc ff 	vmovapd %ymm0,-0x330(%rbp)
  404a24:	ff 
  404a25:	c5 fd 28 8d f0 fc ff 	vmovapd -0x310(%rbp),%ymm1
  404a2c:	ff 
  404a2d:	c5 fd 28 85 d0 fc ff 	vmovapd -0x330(%rbp),%ymm0
  404a34:	ff 
  404a35:	c4 e2 f5 b8 85 10 fd 	vfmadd231pd -0x2f0(%rbp),%ymm1,%ymm0
  404a3c:	ff ff 
  404a3e:	c5 fd 29 85 70 fe ff 	vmovapd %ymm0,-0x190(%rbp)
  404a45:	ff 
  404a46:	c5 fd 28 85 b0 fe ff 	vmovapd -0x150(%rbp),%ymm0
  404a4d:	ff 
  404a4e:	c5 fd 29 85 b0 fc ff 	vmovapd %ymm0,-0x350(%rbp)
  404a55:	ff 
  404a56:	c5 fd 28 85 10 ff ff 	vmovapd -0xf0(%rbp),%ymm0
  404a5d:	ff 
  404a5e:	c5 fd 29 85 90 fc ff 	vmovapd %ymm0,-0x370(%rbp)
  404a65:	ff 
  404a66:	c5 fd 28 85 70 fe ff 	vmovapd -0x190(%rbp),%ymm0
  404a6d:	ff 
  404a6e:	c5 fd 29 85 70 fc ff 	vmovapd %ymm0,-0x390(%rbp)
  404a75:	ff 
  404a76:	c5 fd 28 8d 90 fc ff 	vmovapd -0x370(%rbp),%ymm1
  404a7d:	ff 
  404a7e:	c5 fd 28 85 70 fc ff 	vmovapd -0x390(%rbp),%ymm0
  404a85:	ff 
  404a86:	c4 e2 f5 b8 85 b0 fc 	vfmadd231pd -0x350(%rbp),%ymm1,%ymm0
  404a8d:	ff ff 
  404a8f:	c5 fd 29 85 70 fe ff 	vmovapd %ymm0,-0x190(%rbp)
  404a96:	ff 
  404a97:	c5 fd 28 85 90 fe ff 	vmovapd -0x170(%rbp),%ymm0
  404a9e:	ff 
  404a9f:	c5 fd 29 85 50 fc ff 	vmovapd %ymm0,-0x3b0(%rbp)
  404aa6:	ff 
  404aa7:	c5 fd 28 85 10 ff ff 	vmovapd -0xf0(%rbp),%ymm0
  404aae:	ff 
  404aaf:	c5 fd 29 85 30 fc ff 	vmovapd %ymm0,-0x3d0(%rbp)
  404ab6:	ff 
  404ab7:	c5 fd 28 85 70 fe ff 	vmovapd -0x190(%rbp),%ymm0
  404abe:	ff 
  404abf:	c5 fd 29 85 10 fc ff 	vmovapd %ymm0,-0x3f0(%rbp)
  404ac6:	ff 
  404ac7:	c5 fd 28 8d 30 fc ff 	vmovapd -0x3d0(%rbp),%ymm1
  404ace:	ff 
  404acf:	c5 fd 28 85 10 fc ff 	vmovapd -0x3f0(%rbp),%ymm0
  404ad6:	ff 
  404ad7:	c4 e2 f5 b8 85 50 fc 	vfmadd231pd -0x3b0(%rbp),%ymm1,%ymm0
  404ade:	ff ff 
  404ae0:	c5 fd 29 85 70 fe ff 	vmovapd %ymm0,-0x190(%rbp)
  404ae7:	ff 
  404ae8:	48 8b 45 a8          	mov    -0x58(%rbp),%rax
  404aec:	48 83 c0 20          	add    $0x20,%rax
  404af0:	48 89 85 08 fc ff ff 	mov    %rax,-0x3f8(%rbp)
  404af7:	48 8b 85 08 fc ff ff 	mov    -0x3f8(%rbp),%rax
  404afe:	c5 fd 10 00          	vmovupd (%rax),%ymm0
  404b02:	c5 fd 29 85 f0 fe ff 	vmovapd %ymm0,-0x110(%rbp)
  404b09:	ff 
  404b0a:	48 8b 45 a8          	mov    -0x58(%rbp),%rax
  404b0e:	48 83 c0 28          	add    $0x28,%rax
  404b12:	48 89 85 00 fc ff ff 	mov    %rax,-0x400(%rbp)
  404b19:	48 8b 85 00 fc ff ff 	mov    -0x400(%rbp),%rax
  404b20:	c5 fd 10 00          	vmovupd (%rax),%ymm0
  404b24:	c5 fd 29 85 d0 fe ff 	vmovapd %ymm0,-0x130(%rbp)
  404b2b:	ff 
  404b2c:	48 8b 45 a8          	mov    -0x58(%rbp),%rax
  404b30:	48 83 c0 30          	add    $0x30,%rax
  404b34:	48 89 85 f8 fb ff ff 	mov    %rax,-0x408(%rbp)
  404b3b:	48 8b 85 f8 fb ff ff 	mov    -0x408(%rbp),%rax
  404b42:	c5 fd 10 00          	vmovupd (%rax),%ymm0
  404b46:	c5 fd 29 85 b0 fe ff 	vmovapd %ymm0,-0x150(%rbp)
  404b4d:	ff 
  404b4e:	48 8b 45 a8          	mov    -0x58(%rbp),%rax
  404b52:	48 83 c0 38          	add    $0x38,%rax
  404b56:	48 89 85 f0 fb ff ff 	mov    %rax,-0x410(%rbp)
  404b5d:	48 8b 85 f0 fb ff ff 	mov    -0x410(%rbp),%rax
  404b64:	c5 fd 10 00          	vmovupd (%rax),%ymm0
  404b68:	c5 fd 29 85 90 fe ff 	vmovapd %ymm0,-0x170(%rbp)
  404b6f:	ff 
  404b70:	c5 fd 28 85 f0 fe ff 	vmovapd -0x110(%rbp),%ymm0
  404b77:	ff 
  404b78:	c5 fd 29 85 d0 fb ff 	vmovapd %ymm0,-0x430(%rbp)
  404b7f:	ff 
  404b80:	c5 fd 28 85 30 ff ff 	vmovapd -0xd0(%rbp),%ymm0
  404b87:	ff 
  404b88:	c5 fd 29 85 b0 fb ff 	vmovapd %ymm0,-0x450(%rbp)
  404b8f:	ff 
  404b90:	c5 fd 28 85 50 fe ff 	vmovapd -0x1b0(%rbp),%ymm0
  404b97:	ff 
  404b98:	c5 fd 29 85 90 fb ff 	vmovapd %ymm0,-0x470(%rbp)
  404b9f:	ff 
  404ba0:	c5 fd 28 8d b0 fb ff 	vmovapd -0x450(%rbp),%ymm1
  404ba7:	ff 
  404ba8:	c5 fd 28 85 90 fb ff 	vmovapd -0x470(%rbp),%ymm0
  404baf:	ff 
  404bb0:	c4 e2 f5 b8 85 d0 fb 	vfmadd231pd -0x430(%rbp),%ymm1,%ymm0
  404bb7:	ff ff 
  404bb9:	c5 fd 29 85 50 fe ff 	vmovapd %ymm0,-0x1b0(%rbp)
  404bc0:	ff 
  404bc1:	c5 fd 28 85 d0 fe ff 	vmovapd -0x130(%rbp),%ymm0
  404bc8:	ff 
  404bc9:	c5 fd 29 85 70 fb ff 	vmovapd %ymm0,-0x490(%rbp)
  404bd0:	ff 
  404bd1:	c5 fd 28 85 10 ff ff 	vmovapd -0xf0(%rbp),%ymm0
  404bd8:	ff 
  404bd9:	c5 fd 29 85 50 fb ff 	vmovapd %ymm0,-0x4b0(%rbp)
  404be0:	ff 
  404be1:	c5 fd 28 85 50 fe ff 	vmovapd -0x1b0(%rbp),%ymm0
  404be8:	ff 
  404be9:	c5 fd 29 85 30 fb ff 	vmovapd %ymm0,-0x4d0(%rbp)
  404bf0:	ff 
  404bf1:	c5 fd 28 8d 50 fb ff 	vmovapd -0x4b0(%rbp),%ymm1
  404bf8:	ff 
  404bf9:	c5 fd 28 85 30 fb ff 	vmovapd -0x4d0(%rbp),%ymm0
  404c00:	ff 
  404c01:	c4 e2 f5 b8 85 70 fb 	vfmadd231pd -0x490(%rbp),%ymm1,%ymm0
  404c08:	ff ff 
  404c0a:	c5 fd 29 85 50 fe ff 	vmovapd %ymm0,-0x1b0(%rbp)
  404c11:	ff 
  404c12:	c5 fd 28 85 b0 fe ff 	vmovapd -0x150(%rbp),%ymm0
  404c19:	ff 
  404c1a:	c5 fd 29 85 10 fb ff 	vmovapd %ymm0,-0x4f0(%rbp)
  404c21:	ff 
  404c22:	c5 fd 28 85 10 ff ff 	vmovapd -0xf0(%rbp),%ymm0
  404c29:	ff 
  404c2a:	c5 fd 29 85 f0 fa ff 	vmovapd %ymm0,-0x510(%rbp)
  404c31:	ff 
  404c32:	c5 fd 28 85 50 fe ff 	vmovapd -0x1b0(%rbp),%ymm0
  404c39:	ff 
  404c3a:	c5 fd 29 85 d0 fa ff 	vmovapd %ymm0,-0x530(%rbp)
  404c41:	ff 
  404c42:	c5 fd 28 8d f0 fa ff 	vmovapd -0x510(%rbp),%ymm1
  404c49:	ff 
  404c4a:	c5 fd 28 85 d0 fa ff 	vmovapd -0x530(%rbp),%ymm0
  404c51:	ff 
  404c52:	c4 e2 f5 b8 85 10 fb 	vfmadd231pd -0x4f0(%rbp),%ymm1,%ymm0
  404c59:	ff ff 
  404c5b:	c5 fd 29 85 50 fe ff 	vmovapd %ymm0,-0x1b0(%rbp)
  404c62:	ff 
  404c63:	c5 fd 28 85 90 fe ff 	vmovapd -0x170(%rbp),%ymm0
  404c6a:	ff 
  404c6b:	c5 fd 29 85 b0 fa ff 	vmovapd %ymm0,-0x550(%rbp)
  404c72:	ff 
  404c73:	c5 fd 28 85 10 ff ff 	vmovapd -0xf0(%rbp),%ymm0
  404c7a:	ff 
  404c7b:	c5 fd 29 85 90 fa ff 	vmovapd %ymm0,-0x570(%rbp)
  404c82:	ff 
  404c83:	c5 fd 28 85 50 fe ff 	vmovapd -0x1b0(%rbp),%ymm0
  404c8a:	ff 
  404c8b:	c5 fd 29 85 70 fa ff 	vmovapd %ymm0,-0x590(%rbp)
  404c92:	ff 
  404c93:	c5 fd 28 8d 90 fa ff 	vmovapd -0x570(%rbp),%ymm1
  404c9a:	ff 
  404c9b:	c5 fd 28 85 70 fa ff 	vmovapd -0x590(%rbp),%ymm0
  404ca2:	ff 
  404ca3:	c4 e2 f5 b8 85 b0 fa 	vfmadd231pd -0x550(%rbp),%ymm1,%ymm0
  404caa:	ff ff 
  404cac:	c5 fd 29 85 50 fe ff 	vmovapd %ymm0,-0x1b0(%rbp)
  404cb3:	ff 
  404cb4:	48 8b 45 a8          	mov    -0x58(%rbp),%rax
  404cb8:	48 83 c0 40          	add    $0x40,%rax
  404cbc:	48 89 85 68 fa ff ff 	mov    %rax,-0x598(%rbp)
  404cc3:	48 8b 85 68 fa ff ff 	mov    -0x598(%rbp),%rax
  404cca:	c5 fd 10 00          	vmovupd (%rax),%ymm0
  404cce:	c5 fd 29 85 f0 fe ff 	vmovapd %ymm0,-0x110(%rbp)
  404cd5:	ff 
  404cd6:	48 8b 45 a8          	mov    -0x58(%rbp),%rax
  404cda:	48 83 c0 48          	add    $0x48,%rax
  404cde:	48 89 85 60 fa ff ff 	mov    %rax,-0x5a0(%rbp)
  404ce5:	48 8b 85 60 fa ff ff 	mov    -0x5a0(%rbp),%rax
  404cec:	c5 fd 10 00          	vmovupd (%rax),%ymm0
  404cf0:	c5 fd 29 85 d0 fe ff 	vmovapd %ymm0,-0x130(%rbp)
  404cf7:	ff 
  404cf8:	48 8b 45 a8          	mov    -0x58(%rbp),%rax
  404cfc:	48 83 c0 50          	add    $0x50,%rax
  404d00:	48 89 85 58 fa ff ff 	mov    %rax,-0x5a8(%rbp)
  404d07:	48 8b 85 58 fa ff ff 	mov    -0x5a8(%rbp),%rax
  404d0e:	c5 fd 10 00          	vmovupd (%rax),%ymm0
  404d12:	c5 fd 29 85 b0 fe ff 	vmovapd %ymm0,-0x150(%rbp)
  404d19:	ff 
  404d1a:	48 8b 45 a8          	mov    -0x58(%rbp),%rax
  404d1e:	48 83 c0 58          	add    $0x58,%rax
  404d22:	48 89 85 50 fa ff ff 	mov    %rax,-0x5b0(%rbp)
  404d29:	48 8b 85 50 fa ff ff 	mov    -0x5b0(%rbp),%rax
  404d30:	c5 fd 10 00          	vmovupd (%rax),%ymm0
  404d34:	c5 fd 29 85 90 fe ff 	vmovapd %ymm0,-0x170(%rbp)
  404d3b:	ff 
  404d3c:	c5 fd 28 85 f0 fe ff 	vmovapd -0x110(%rbp),%ymm0
  404d43:	ff 
  404d44:	c5 fd 29 85 30 fa ff 	vmovapd %ymm0,-0x5d0(%rbp)
  404d4b:	ff 
  404d4c:	c5 fd 28 85 30 ff ff 	vmovapd -0xd0(%rbp),%ymm0
  404d53:	ff 
  404d54:	c5 fd 29 85 10 fa ff 	vmovapd %ymm0,-0x5f0(%rbp)
  404d5b:	ff 
  404d5c:	c5 fd 28 85 30 fe ff 	vmovapd -0x1d0(%rbp),%ymm0
  404d63:	ff 
  404d64:	c5 fd 29 85 f0 f9 ff 	vmovapd %ymm0,-0x610(%rbp)
  404d6b:	ff 
  404d6c:	c5 fd 28 8d 10 fa ff 	vmovapd -0x5f0(%rbp),%ymm1
  404d73:	ff 
  404d74:	c5 fd 28 85 f0 f9 ff 	vmovapd -0x610(%rbp),%ymm0
  404d7b:	ff 
  404d7c:	c4 e2 f5 b8 85 30 fa 	vfmadd231pd -0x5d0(%rbp),%ymm1,%ymm0
  404d83:	ff ff 
  404d85:	c5 fd 29 85 30 fe ff 	vmovapd %ymm0,-0x1d0(%rbp)
  404d8c:	ff 
  404d8d:	c5 fd 28 85 d0 fe ff 	vmovapd -0x130(%rbp),%ymm0
  404d94:	ff 
  404d95:	c5 fd 29 85 d0 f9 ff 	vmovapd %ymm0,-0x630(%rbp)
  404d9c:	ff 
  404d9d:	c5 fd 28 85 10 ff ff 	vmovapd -0xf0(%rbp),%ymm0
  404da4:	ff 
  404da5:	c5 fd 29 85 b0 f9 ff 	vmovapd %ymm0,-0x650(%rbp)
  404dac:	ff 
  404dad:	c5 fd 28 85 30 fe ff 	vmovapd -0x1d0(%rbp),%ymm0
  404db4:	ff 
  404db5:	c5 fd 29 85 90 f9 ff 	vmovapd %ymm0,-0x670(%rbp)
  404dbc:	ff 
  404dbd:	c5 fd 28 8d b0 f9 ff 	vmovapd -0x650(%rbp),%ymm1
  404dc4:	ff 
  404dc5:	c5 fd 28 85 90 f9 ff 	vmovapd -0x670(%rbp),%ymm0
  404dcc:	ff 
  404dcd:	c4 e2 f5 b8 85 d0 f9 	vfmadd231pd -0x630(%rbp),%ymm1,%ymm0
  404dd4:	ff ff 
  404dd6:	c5 fd 29 85 30 fe ff 	vmovapd %ymm0,-0x1d0(%rbp)
  404ddd:	ff 
  404dde:	c5 fd 28 85 b0 fe ff 	vmovapd -0x150(%rbp),%ymm0
  404de5:	ff 
  404de6:	c5 fd 29 85 70 f9 ff 	vmovapd %ymm0,-0x690(%rbp)
  404ded:	ff 
  404dee:	c5 fd 28 85 10 ff ff 	vmovapd -0xf0(%rbp),%ymm0
  404df5:	ff 
  404df6:	c5 fd 29 85 50 f9 ff 	vmovapd %ymm0,-0x6b0(%rbp)
  404dfd:	ff 
  404dfe:	c5 fd 28 85 30 fe ff 	vmovapd -0x1d0(%rbp),%ymm0
  404e05:	ff 
  404e06:	c5 fd 29 85 30 f9 ff 	vmovapd %ymm0,-0x6d0(%rbp)
  404e0d:	ff 
  404e0e:	c5 fd 28 8d 50 f9 ff 	vmovapd -0x6b0(%rbp),%ymm1
  404e15:	ff 
  404e16:	c5 fd 28 85 30 f9 ff 	vmovapd -0x6d0(%rbp),%ymm0
  404e1d:	ff 
  404e1e:	c4 e2 f5 b8 85 70 f9 	vfmadd231pd -0x690(%rbp),%ymm1,%ymm0
  404e25:	ff ff 
  404e27:	c5 fd 29 85 30 fe ff 	vmovapd %ymm0,-0x1d0(%rbp)
  404e2e:	ff 
  404e2f:	c5 fd 28 85 90 fe ff 	vmovapd -0x170(%rbp),%ymm0
  404e36:	ff 
  404e37:	c5 fd 29 85 10 f9 ff 	vmovapd %ymm0,-0x6f0(%rbp)
  404e3e:	ff 
  404e3f:	c5 fd 28 85 10 ff ff 	vmovapd -0xf0(%rbp),%ymm0
  404e46:	ff 
  404e47:	c5 fd 29 85 f0 f8 ff 	vmovapd %ymm0,-0x710(%rbp)
  404e4e:	ff 
  404e4f:	c5 fd 28 85 30 fe ff 	vmovapd -0x1d0(%rbp),%ymm0
  404e56:	ff 
  404e57:	c5 fd 29 85 d0 f8 ff 	vmovapd %ymm0,-0x730(%rbp)
  404e5e:	ff 
  404e5f:	c5 fd 28 8d f0 f8 ff 	vmovapd -0x710(%rbp),%ymm1
  404e66:	ff 
  404e67:	c5 fd 28 85 d0 f8 ff 	vmovapd -0x730(%rbp),%ymm0
  404e6e:	ff 
  404e6f:	c4 e2 f5 b8 85 10 f9 	vfmadd231pd -0x6f0(%rbp),%ymm1,%ymm0
  404e76:	ff ff 
  404e78:	c5 fd 29 85 30 fe ff 	vmovapd %ymm0,-0x1d0(%rbp)
  404e7f:	ff 
  404e80:	48 8b 45 a8          	mov    -0x58(%rbp),%rax
  404e84:	48 83 c0 60          	add    $0x60,%rax
  404e88:	48 89 85 c8 f8 ff ff 	mov    %rax,-0x738(%rbp)
  404e8f:	48 8b 85 c8 f8 ff ff 	mov    -0x738(%rbp),%rax
  404e96:	c5 fd 10 00          	vmovupd (%rax),%ymm0
  404e9a:	c5 fd 29 85 f0 fe ff 	vmovapd %ymm0,-0x110(%rbp)
  404ea1:	ff 
  404ea2:	48 8b 45 a8          	mov    -0x58(%rbp),%rax
  404ea6:	48 83 c0 68          	add    $0x68,%rax
  404eaa:	48 89 85 c0 f8 ff ff 	mov    %rax,-0x740(%rbp)
  404eb1:	48 8b 85 c0 f8 ff ff 	mov    -0x740(%rbp),%rax
  404eb8:	c5 fd 10 00          	vmovupd (%rax),%ymm0
  404ebc:	c5 fd 29 85 d0 fe ff 	vmovapd %ymm0,-0x130(%rbp)
  404ec3:	ff 
  404ec4:	48 8b 45 a8          	mov    -0x58(%rbp),%rax
  404ec8:	48 83 c0 70          	add    $0x70,%rax
  404ecc:	48 89 85 b8 f8 ff ff 	mov    %rax,-0x748(%rbp)
  404ed3:	48 8b 85 b8 f8 ff ff 	mov    -0x748(%rbp),%rax
  404eda:	c5 fd 10 00          	vmovupd (%rax),%ymm0
  404ede:	c5 fd 29 85 b0 fe ff 	vmovapd %ymm0,-0x150(%rbp)
  404ee5:	ff 
  404ee6:	48 8b 45 a8          	mov    -0x58(%rbp),%rax
  404eea:	48 83 c0 78          	add    $0x78,%rax
  404eee:	48 89 85 b0 f8 ff ff 	mov    %rax,-0x750(%rbp)
  404ef5:	48 8b 85 b0 f8 ff ff 	mov    -0x750(%rbp),%rax
  404efc:	c5 fd 10 00          	vmovupd (%rax),%ymm0
  404f00:	c5 fd 29 85 90 fe ff 	vmovapd %ymm0,-0x170(%rbp)
  404f07:	ff 
  404f08:	c5 fd 28 85 f0 fe ff 	vmovapd -0x110(%rbp),%ymm0
  404f0f:	ff 
  404f10:	c5 fd 29 85 90 f8 ff 	vmovapd %ymm0,-0x770(%rbp)
  404f17:	ff 
  404f18:	c5 fd 28 85 30 ff ff 	vmovapd -0xd0(%rbp),%ymm0
  404f1f:	ff 
  404f20:	c5 fd 29 85 70 f8 ff 	vmovapd %ymm0,-0x790(%rbp)
  404f27:	ff 
  404f28:	c5 fd 28 85 10 fe ff 	vmovapd -0x1f0(%rbp),%ymm0
  404f2f:	ff 
  404f30:	c5 fd 29 85 50 f8 ff 	vmovapd %ymm0,-0x7b0(%rbp)
  404f37:	ff 
  404f38:	c5 fd 28 8d 70 f8 ff 	vmovapd -0x790(%rbp),%ymm1
  404f3f:	ff 
  404f40:	c5 fd 28 85 50 f8 ff 	vmovapd -0x7b0(%rbp),%ymm0
  404f47:	ff 
  404f48:	c4 e2 f5 b8 85 90 f8 	vfmadd231pd -0x770(%rbp),%ymm1,%ymm0
  404f4f:	ff ff 
  404f51:	c5 fd 29 85 10 fe ff 	vmovapd %ymm0,-0x1f0(%rbp)
  404f58:	ff 
  404f59:	c5 fd 28 85 d0 fe ff 	vmovapd -0x130(%rbp),%ymm0
  404f60:	ff 
  404f61:	c5 fd 29 85 30 f8 ff 	vmovapd %ymm0,-0x7d0(%rbp)
  404f68:	ff 
  404f69:	c5 fd 28 85 10 ff ff 	vmovapd -0xf0(%rbp),%ymm0
  404f70:	ff 
  404f71:	c5 fd 29 85 10 f8 ff 	vmovapd %ymm0,-0x7f0(%rbp)
  404f78:	ff 
  404f79:	c5 fd 28 85 10 fe ff 	vmovapd -0x1f0(%rbp),%ymm0
  404f80:	ff 
  404f81:	c5 fd 29 85 f0 f7 ff 	vmovapd %ymm0,-0x810(%rbp)
  404f88:	ff 
  404f89:	c5 fd 28 8d 10 f8 ff 	vmovapd -0x7f0(%rbp),%ymm1
  404f90:	ff 
  404f91:	c5 fd 28 85 f0 f7 ff 	vmovapd -0x810(%rbp),%ymm0
  404f98:	ff 
  404f99:	c4 e2 f5 b8 85 30 f8 	vfmadd231pd -0x7d0(%rbp),%ymm1,%ymm0
  404fa0:	ff ff 
  404fa2:	c5 fd 29 85 10 fe ff 	vmovapd %ymm0,-0x1f0(%rbp)
  404fa9:	ff 
  404faa:	c5 fd 28 85 b0 fe ff 	vmovapd -0x150(%rbp),%ymm0
  404fb1:	ff 
  404fb2:	c5 fd 29 85 d0 f7 ff 	vmovapd %ymm0,-0x830(%rbp)
  404fb9:	ff 
  404fba:	c5 fd 28 85 10 ff ff 	vmovapd -0xf0(%rbp),%ymm0
  404fc1:	ff 
  404fc2:	c5 fd 29 85 b0 f7 ff 	vmovapd %ymm0,-0x850(%rbp)
  404fc9:	ff 
  404fca:	c5 fd 28 85 10 fe ff 	vmovapd -0x1f0(%rbp),%ymm0
  404fd1:	ff 
  404fd2:	c5 fd 29 85 90 f7 ff 	vmovapd %ymm0,-0x870(%rbp)
  404fd9:	ff 
  404fda:	c5 fd 28 8d b0 f7 ff 	vmovapd -0x850(%rbp),%ymm1
  404fe1:	ff 
  404fe2:	c5 fd 28 85 90 f7 ff 	vmovapd -0x870(%rbp),%ymm0
  404fe9:	ff 
  404fea:	c4 e2 f5 b8 85 d0 f7 	vfmadd231pd -0x830(%rbp),%ymm1,%ymm0
  404ff1:	ff ff 
  404ff3:	c5 fd 29 85 10 fe ff 	vmovapd %ymm0,-0x1f0(%rbp)
  404ffa:	ff 
  404ffb:	c5 fd 28 85 90 fe ff 	vmovapd -0x170(%rbp),%ymm0
  405002:	ff 
  405003:	c5 fd 29 85 70 f7 ff 	vmovapd %ymm0,-0x890(%rbp)
  40500a:	ff 
  40500b:	c5 fd 28 85 10 ff ff 	vmovapd -0xf0(%rbp),%ymm0
  405012:	ff 
  405013:	c5 fd 29 85 50 f7 ff 	vmovapd %ymm0,-0x8b0(%rbp)
  40501a:	ff 
  40501b:	c5 fd 28 85 10 fe ff 	vmovapd -0x1f0(%rbp),%ymm0
  405022:	ff 
  405023:	c5 fd 29 85 30 f7 ff 	vmovapd %ymm0,-0x8d0(%rbp)
  40502a:	ff 
  40502b:	c5 fd 28 8d 50 f7 ff 	vmovapd -0x8b0(%rbp),%ymm1
  405032:	ff 
  405033:	c5 fd 28 85 30 f7 ff 	vmovapd -0x8d0(%rbp),%ymm0
  40503a:	ff 
  40503b:	c4 e2 f5 b8 85 70 f7 	vfmadd231pd -0x890(%rbp),%ymm1,%ymm0
  405042:	ff ff 
  405044:	c5 fd 29 85 10 fe ff 	vmovapd %ymm0,-0x1f0(%rbp)
  40504b:	ff 
  40504c:	48 8b 85 78 ff ff ff 	mov    -0x88(%rbp),%rax
  405053:	48 89 85 28 f7 ff ff 	mov    %rax,-0x8d8(%rbp)
  40505a:	c5 fd 28 85 70 fe ff 	vmovapd -0x190(%rbp),%ymm0
  405061:	ff 
  405062:	c5 fd 29 85 f0 f6 ff 	vmovapd %ymm0,-0x910(%rbp)
  405069:	ff 
  40506a:	48 8b 85 28 f7 ff ff 	mov    -0x8d8(%rbp),%rax
  405071:	c5 fd 28 85 f0 f6 ff 	vmovapd -0x910(%rbp),%ymm0
  405078:	ff 
  405079:	c5 fd 11 00          	vmovupd %ymm0,(%rax)
  40507d:	48 8b 85 78 ff ff ff 	mov    -0x88(%rbp),%rax
  405084:	48 83 c0 20          	add    $0x20,%rax
  405088:	48 89 85 e8 f6 ff ff 	mov    %rax,-0x918(%rbp)
  40508f:	c5 fd 28 85 50 fe ff 	vmovapd -0x1b0(%rbp),%ymm0
  405096:	ff 
  405097:	c5 fd 29 85 b0 f6 ff 	vmovapd %ymm0,-0x950(%rbp)
  40509e:	ff 
  40509f:	48 8b 85 e8 f6 ff ff 	mov    -0x918(%rbp),%rax
  4050a6:	c5 fd 28 85 b0 f6 ff 	vmovapd -0x950(%rbp),%ymm0
  4050ad:	ff 
  4050ae:	c5 fd 11 00          	vmovupd %ymm0,(%rax)
  4050b2:	48 8b 85 78 ff ff ff 	mov    -0x88(%rbp),%rax
  4050b9:	48 83 c0 40          	add    $0x40,%rax
  4050bd:	48 89 85 a8 f6 ff ff 	mov    %rax,-0x958(%rbp)
  4050c4:	c5 fd 28 85 30 fe ff 	vmovapd -0x1d0(%rbp),%ymm0
  4050cb:	ff 
  4050cc:	c5 fd 29 85 70 f6 ff 	vmovapd %ymm0,-0x990(%rbp)
  4050d3:	ff 
  4050d4:	48 8b 85 a8 f6 ff ff 	mov    -0x958(%rbp),%rax
  4050db:	c5 fd 28 85 70 f6 ff 	vmovapd -0x990(%rbp),%ymm0
  4050e2:	ff 
  4050e3:	c5 fd 11 00          	vmovupd %ymm0,(%rax)
  4050e7:	48 8b 85 78 ff ff ff 	mov    -0x88(%rbp),%rax
  4050ee:	48 83 c0 60          	add    $0x60,%rax
  4050f2:	48 89 85 68 f6 ff ff 	mov    %rax,-0x998(%rbp)
  4050f9:	c5 fd 28 85 10 fe ff 	vmovapd -0x1f0(%rbp),%ymm0
  405100:	ff 
  405101:	c5 fd 29 85 30 f6 ff 	vmovapd %ymm0,-0x9d0(%rbp)
  405108:	ff 
  405109:	48 8b 85 68 f6 ff ff 	mov    -0x998(%rbp),%rax
  405110:	c5 fd 28 85 30 f6 ff 	vmovapd -0x9d0(%rbp),%ymm0
  405117:	ff 
  405118:	c5 fd 11 00          	vmovupd %ymm0,(%rax)
  40511c:	c5 f9 57 c0          	vxorpd %xmm0,%xmm0,%xmm0
  405120:	c5 fd 29 85 f0 fe ff 	vmovapd %ymm0,-0x110(%rbp)
  405127:	ff 
  405128:	c5 f9 57 c0          	vxorpd %xmm0,%xmm0,%xmm0
  40512c:	c5 fd 29 85 d0 fe ff 	vmovapd %ymm0,-0x130(%rbp)
  405133:	ff 
  405134:	c5 f9 57 c0          	vxorpd %xmm0,%xmm0,%xmm0
  405138:	c5 fd 29 85 b0 fe ff 	vmovapd %ymm0,-0x150(%rbp)
  40513f:	ff 
  405140:	c5 f9 57 c0          	vxorpd %xmm0,%xmm0,%xmm0
  405144:	c5 fd 29 85 90 fe ff 	vmovapd %ymm0,-0x170(%rbp)
  40514b:	ff 
  40514c:	c5 f9 57 c0          	vxorpd %xmm0,%xmm0,%xmm0
  405150:	c5 fd 29 85 70 fe ff 	vmovapd %ymm0,-0x190(%rbp)
  405157:	ff 
  405158:	c5 f9 57 c0          	vxorpd %xmm0,%xmm0,%xmm0
  40515c:	c5 fd 29 85 50 fe ff 	vmovapd %ymm0,-0x1b0(%rbp)
  405163:	ff 
  405164:	c5 f9 57 c0          	vxorpd %xmm0,%xmm0,%xmm0
  405168:	c5 fd 29 85 30 fe ff 	vmovapd %ymm0,-0x1d0(%rbp)
  40516f:	ff 
  405170:	c5 f9 57 c0          	vxorpd %xmm0,%xmm0,%xmm0
  405174:	c5 fd 29 85 10 fe ff 	vmovapd %ymm0,-0x1f0(%rbp)
  40517b:	ff 
  40517c:	c5 f9 57 c0          	vxorpd %xmm0,%xmm0,%xmm0
  405180:	c5 fd 29 85 f0 fd ff 	vmovapd %ymm0,-0x210(%rbp)
  405187:	ff 
  405188:	48 8b 45 98          	mov    -0x68(%rbp),%rax
  40518c:	48 89 85 28 f6 ff ff 	mov    %rax,-0x9d8(%rbp)
  405193:	48 8b 85 28 f6 ff ff 	mov    -0x9d8(%rbp),%rax
  40519a:	c5 fd 10 00          	vmovupd (%rax),%ymm0
  40519e:	c5 fd 29 85 f0 fe ff 	vmovapd %ymm0,-0x110(%rbp)
  4051a5:	ff 
  4051a6:	48 8b 45 98          	mov    -0x68(%rbp),%rax
  4051aa:	48 83 c0 08          	add    $0x8,%rax
  4051ae:	48 89 85 20 f6 ff ff 	mov    %rax,-0x9e0(%rbp)
  4051b5:	48 8b 85 20 f6 ff ff 	mov    -0x9e0(%rbp),%rax
  4051bc:	c5 fd 10 00          	vmovupd (%rax),%ymm0
  4051c0:	c5 fd 29 85 d0 fe ff 	vmovapd %ymm0,-0x130(%rbp)
  4051c7:	ff 
  4051c8:	48 8b 45 98          	mov    -0x68(%rbp),%rax
  4051cc:	48 83 c0 10          	add    $0x10,%rax
  4051d0:	48 89 85 18 f6 ff ff 	mov    %rax,-0x9e8(%rbp)
  4051d7:	48 8b 85 18 f6 ff ff 	mov    -0x9e8(%rbp),%rax
  4051de:	c5 fd 10 00          	vmovupd (%rax),%ymm0
  4051e2:	c5 fd 29 85 b0 fe ff 	vmovapd %ymm0,-0x150(%rbp)
  4051e9:	ff 
  4051ea:	48 8b 45 98          	mov    -0x68(%rbp),%rax
  4051ee:	48 83 c0 18          	add    $0x18,%rax
  4051f2:	48 89 85 10 f6 ff ff 	mov    %rax,-0x9f0(%rbp)
  4051f9:	48 8b 85 10 f6 ff ff 	mov    -0x9f0(%rbp),%rax
  405200:	c5 fd 10 00          	vmovupd (%rax),%ymm0
  405204:	c5 fd 29 85 90 fe ff 	vmovapd %ymm0,-0x170(%rbp)
  40520b:	ff 
  40520c:	c5 fd 28 85 f0 fe ff 	vmovapd -0x110(%rbp),%ymm0
  405213:	ff 
  405214:	c5 fd 29 85 f0 f5 ff 	vmovapd %ymm0,-0xa10(%rbp)
  40521b:	ff 
  40521c:	c5 fd 28 85 30 ff ff 	vmovapd -0xd0(%rbp),%ymm0
  405223:	ff 
  405224:	c5 fd 29 85 d0 f5 ff 	vmovapd %ymm0,-0xa30(%rbp)
  40522b:	ff 
  40522c:	c5 fd 28 85 70 fe ff 	vmovapd -0x190(%rbp),%ymm0
  405233:	ff 
  405234:	c5 fd 29 85 b0 f5 ff 	vmovapd %ymm0,-0xa50(%rbp)
  40523b:	ff 
  40523c:	c5 fd 28 8d d0 f5 ff 	vmovapd -0xa30(%rbp),%ymm1
  405243:	ff 
  405244:	c5 fd 28 85 b0 f5 ff 	vmovapd -0xa50(%rbp),%ymm0
  40524b:	ff 
  40524c:	c4 e2 f5 b8 85 f0 f5 	vfmadd231pd -0xa10(%rbp),%ymm1,%ymm0
  405253:	ff ff 
  405255:	c5 fd 29 85 70 fe ff 	vmovapd %ymm0,-0x190(%rbp)
  40525c:	ff 
  40525d:	c5 fd 28 85 d0 fe ff 	vmovapd -0x130(%rbp),%ymm0
  405264:	ff 
  405265:	c5 fd 29 85 90 f5 ff 	vmovapd %ymm0,-0xa70(%rbp)
  40526c:	ff 
  40526d:	c5 fd 28 85 10 ff ff 	vmovapd -0xf0(%rbp),%ymm0
  405274:	ff 
  405275:	c5 fd 29 85 70 f5 ff 	vmovapd %ymm0,-0xa90(%rbp)
  40527c:	ff 
  40527d:	c5 fd 28 85 70 fe ff 	vmovapd -0x190(%rbp),%ymm0
  405284:	ff 
  405285:	c5 fd 29 85 50 f5 ff 	vmovapd %ymm0,-0xab0(%rbp)
  40528c:	ff 
  40528d:	c5 fd 28 8d 70 f5 ff 	vmovapd -0xa90(%rbp),%ymm1
  405294:	ff 
  405295:	c5 fd 28 85 50 f5 ff 	vmovapd -0xab0(%rbp),%ymm0
  40529c:	ff 
  40529d:	c4 e2 f5 b8 85 90 f5 	vfmadd231pd -0xa70(%rbp),%ymm1,%ymm0
  4052a4:	ff ff 
  4052a6:	c5 fd 29 85 70 fe ff 	vmovapd %ymm0,-0x190(%rbp)
  4052ad:	ff 
  4052ae:	c5 fd 28 85 b0 fe ff 	vmovapd -0x150(%rbp),%ymm0
  4052b5:	ff 
  4052b6:	c5 fd 29 85 30 f5 ff 	vmovapd %ymm0,-0xad0(%rbp)
  4052bd:	ff 
  4052be:	c5 fd 28 85 10 ff ff 	vmovapd -0xf0(%rbp),%ymm0
  4052c5:	ff 
  4052c6:	c5 fd 29 85 10 f5 ff 	vmovapd %ymm0,-0xaf0(%rbp)
  4052cd:	ff 
  4052ce:	c5 fd 28 85 70 fe ff 	vmovapd -0x190(%rbp),%ymm0
  4052d5:	ff 
  4052d6:	c5 fd 29 85 f0 f4 ff 	vmovapd %ymm0,-0xb10(%rbp)
  4052dd:	ff 
  4052de:	c5 fd 28 8d 10 f5 ff 	vmovapd -0xaf0(%rbp),%ymm1
  4052e5:	ff 
  4052e6:	c5 fd 28 85 f0 f4 ff 	vmovapd -0xb10(%rbp),%ymm0
  4052ed:	ff 
  4052ee:	c4 e2 f5 b8 85 30 f5 	vfmadd231pd -0xad0(%rbp),%ymm1,%ymm0
  4052f5:	ff ff 
  4052f7:	c5 fd 29 85 70 fe ff 	vmovapd %ymm0,-0x190(%rbp)
  4052fe:	ff 
  4052ff:	c5 fd 28 85 90 fe ff 	vmovapd -0x170(%rbp),%ymm0
  405306:	ff 
  405307:	c5 fd 29 85 d0 f4 ff 	vmovapd %ymm0,-0xb30(%rbp)
  40530e:	ff 
  40530f:	c5 fd 28 85 10 ff ff 	vmovapd -0xf0(%rbp),%ymm0
  405316:	ff 
  405317:	c5 fd 29 85 b0 f4 ff 	vmovapd %ymm0,-0xb50(%rbp)
  40531e:	ff 
  40531f:	c5 fd 28 85 70 fe ff 	vmovapd -0x190(%rbp),%ymm0
  405326:	ff 
  405327:	c5 fd 29 85 90 f4 ff 	vmovapd %ymm0,-0xb70(%rbp)
  40532e:	ff 
  40532f:	c5 fd 28 8d b0 f4 ff 	vmovapd -0xb50(%rbp),%ymm1
  405336:	ff 
  405337:	c5 fd 28 85 90 f4 ff 	vmovapd -0xb70(%rbp),%ymm0
  40533e:	ff 
  40533f:	c4 e2 f5 b8 85 d0 f4 	vfmadd231pd -0xb30(%rbp),%ymm1,%ymm0
  405346:	ff ff 
  405348:	c5 fd 29 85 70 fe ff 	vmovapd %ymm0,-0x190(%rbp)
  40534f:	ff 
  405350:	48 8b 45 98          	mov    -0x68(%rbp),%rax
  405354:	48 83 c0 20          	add    $0x20,%rax
  405358:	48 89 85 88 f4 ff ff 	mov    %rax,-0xb78(%rbp)
  40535f:	48 8b 85 88 f4 ff ff 	mov    -0xb78(%rbp),%rax
  405366:	c5 fd 10 00          	vmovupd (%rax),%ymm0
  40536a:	c5 fd 29 85 f0 fe ff 	vmovapd %ymm0,-0x110(%rbp)
  405371:	ff 
  405372:	48 8b 45 98          	mov    -0x68(%rbp),%rax
  405376:	48 83 c0 28          	add    $0x28,%rax
  40537a:	48 89 85 80 f4 ff ff 	mov    %rax,-0xb80(%rbp)
  405381:	48 8b 85 80 f4 ff ff 	mov    -0xb80(%rbp),%rax
  405388:	c5 fd 10 00          	vmovupd (%rax),%ymm0
  40538c:	c5 fd 29 85 d0 fe ff 	vmovapd %ymm0,-0x130(%rbp)
  405393:	ff 
  405394:	48 8b 45 98          	mov    -0x68(%rbp),%rax
  405398:	48 83 c0 30          	add    $0x30,%rax
  40539c:	48 89 85 78 f4 ff ff 	mov    %rax,-0xb88(%rbp)
  4053a3:	48 8b 85 78 f4 ff ff 	mov    -0xb88(%rbp),%rax
  4053aa:	c5 fd 10 00          	vmovupd (%rax),%ymm0
  4053ae:	c5 fd 29 85 b0 fe ff 	vmovapd %ymm0,-0x150(%rbp)
  4053b5:	ff 
  4053b6:	48 8b 45 98          	mov    -0x68(%rbp),%rax
  4053ba:	48 83 c0 38          	add    $0x38,%rax
  4053be:	48 89 85 70 f4 ff ff 	mov    %rax,-0xb90(%rbp)
  4053c5:	48 8b 85 70 f4 ff ff 	mov    -0xb90(%rbp),%rax
  4053cc:	c5 fd 10 00          	vmovupd (%rax),%ymm0
  4053d0:	c5 fd 29 85 90 fe ff 	vmovapd %ymm0,-0x170(%rbp)
  4053d7:	ff 
  4053d8:	c5 fd 28 85 f0 fe ff 	vmovapd -0x110(%rbp),%ymm0
  4053df:	ff 
  4053e0:	c5 fd 29 85 50 f4 ff 	vmovapd %ymm0,-0xbb0(%rbp)
  4053e7:	ff 
  4053e8:	c5 fd 28 85 30 ff ff 	vmovapd -0xd0(%rbp),%ymm0
  4053ef:	ff 
  4053f0:	c5 fd 29 85 30 f4 ff 	vmovapd %ymm0,-0xbd0(%rbp)
  4053f7:	ff 
  4053f8:	c5 fd 28 85 50 fe ff 	vmovapd -0x1b0(%rbp),%ymm0
  4053ff:	ff 
  405400:	c5 fd 29 85 10 f4 ff 	vmovapd %ymm0,-0xbf0(%rbp)
  405407:	ff 
  405408:	c5 fd 28 8d 30 f4 ff 	vmovapd -0xbd0(%rbp),%ymm1
  40540f:	ff 
  405410:	c5 fd 28 85 10 f4 ff 	vmovapd -0xbf0(%rbp),%ymm0
  405417:	ff 
  405418:	c4 e2 f5 b8 85 50 f4 	vfmadd231pd -0xbb0(%rbp),%ymm1,%ymm0
  40541f:	ff ff 
  405421:	c5 fd 29 85 50 fe ff 	vmovapd %ymm0,-0x1b0(%rbp)
  405428:	ff 
  405429:	c5 fd 28 85 d0 fe ff 	vmovapd -0x130(%rbp),%ymm0
  405430:	ff 
  405431:	c5 fd 29 85 f0 f3 ff 	vmovapd %ymm0,-0xc10(%rbp)
  405438:	ff 
  405439:	c5 fd 28 85 10 ff ff 	vmovapd -0xf0(%rbp),%ymm0
  405440:	ff 
  405441:	c5 fd 29 85 d0 f3 ff 	vmovapd %ymm0,-0xc30(%rbp)
  405448:	ff 
  405449:	c5 fd 28 85 50 fe ff 	vmovapd -0x1b0(%rbp),%ymm0
  405450:	ff 
  405451:	c5 fd 29 85 b0 f3 ff 	vmovapd %ymm0,-0xc50(%rbp)
  405458:	ff 
  405459:	c5 fd 28 8d d0 f3 ff 	vmovapd -0xc30(%rbp),%ymm1
  405460:	ff 
  405461:	c5 fd 28 85 b0 f3 ff 	vmovapd -0xc50(%rbp),%ymm0
  405468:	ff 
  405469:	c4 e2 f5 b8 85 f0 f3 	vfmadd231pd -0xc10(%rbp),%ymm1,%ymm0
  405470:	ff ff 
  405472:	c5 fd 29 85 50 fe ff 	vmovapd %ymm0,-0x1b0(%rbp)
  405479:	ff 
  40547a:	c5 fd 28 85 b0 fe ff 	vmovapd -0x150(%rbp),%ymm0
  405481:	ff 
  405482:	c5 fd 29 85 90 f3 ff 	vmovapd %ymm0,-0xc70(%rbp)
  405489:	ff 
  40548a:	c5 fd 28 85 10 ff ff 	vmovapd -0xf0(%rbp),%ymm0
  405491:	ff 
  405492:	c5 fd 29 85 70 f3 ff 	vmovapd %ymm0,-0xc90(%rbp)
  405499:	ff 
  40549a:	c5 fd 28 85 50 fe ff 	vmovapd -0x1b0(%rbp),%ymm0
  4054a1:	ff 
  4054a2:	c5 fd 29 85 50 f3 ff 	vmovapd %ymm0,-0xcb0(%rbp)
  4054a9:	ff 
  4054aa:	c5 fd 28 8d 70 f3 ff 	vmovapd -0xc90(%rbp),%ymm1
  4054b1:	ff 
  4054b2:	c5 fd 28 85 50 f3 ff 	vmovapd -0xcb0(%rbp),%ymm0
  4054b9:	ff 
  4054ba:	c4 e2 f5 b8 85 90 f3 	vfmadd231pd -0xc70(%rbp),%ymm1,%ymm0
  4054c1:	ff ff 
  4054c3:	c5 fd 29 85 50 fe ff 	vmovapd %ymm0,-0x1b0(%rbp)
  4054ca:	ff 
  4054cb:	c5 fd 28 85 90 fe ff 	vmovapd -0x170(%rbp),%ymm0
  4054d2:	ff 
  4054d3:	c5 fd 29 85 30 f3 ff 	vmovapd %ymm0,-0xcd0(%rbp)
  4054da:	ff 
  4054db:	c5 fd 28 85 10 ff ff 	vmovapd -0xf0(%rbp),%ymm0
  4054e2:	ff 
  4054e3:	c5 fd 29 85 10 f3 ff 	vmovapd %ymm0,-0xcf0(%rbp)
  4054ea:	ff 
  4054eb:	c5 fd 28 85 50 fe ff 	vmovapd -0x1b0(%rbp),%ymm0
  4054f2:	ff 
  4054f3:	c5 fd 29 85 f0 f2 ff 	vmovapd %ymm0,-0xd10(%rbp)
  4054fa:	ff 
  4054fb:	c5 fd 28 8d 10 f3 ff 	vmovapd -0xcf0(%rbp),%ymm1
  405502:	ff 
  405503:	c5 fd 28 85 f0 f2 ff 	vmovapd -0xd10(%rbp),%ymm0
  40550a:	ff 
  40550b:	c4 e2 f5 b8 85 30 f3 	vfmadd231pd -0xcd0(%rbp),%ymm1,%ymm0
  405512:	ff ff 
  405514:	c5 fd 29 85 50 fe ff 	vmovapd %ymm0,-0x1b0(%rbp)
  40551b:	ff 
  40551c:	48 8b 45 98          	mov    -0x68(%rbp),%rax
  405520:	48 83 c0 40          	add    $0x40,%rax
  405524:	48 89 85 e8 f2 ff ff 	mov    %rax,-0xd18(%rbp)
  40552b:	48 8b 85 e8 f2 ff ff 	mov    -0xd18(%rbp),%rax
  405532:	c5 fd 10 00          	vmovupd (%rax),%ymm0
  405536:	c5 fd 29 85 f0 fe ff 	vmovapd %ymm0,-0x110(%rbp)
  40553d:	ff 
  40553e:	48 8b 45 98          	mov    -0x68(%rbp),%rax
  405542:	48 83 c0 48          	add    $0x48,%rax
  405546:	48 89 85 e0 f2 ff ff 	mov    %rax,-0xd20(%rbp)
  40554d:	48 8b 85 e0 f2 ff ff 	mov    -0xd20(%rbp),%rax
  405554:	c5 fd 10 00          	vmovupd (%rax),%ymm0
  405558:	c5 fd 29 85 d0 fe ff 	vmovapd %ymm0,-0x130(%rbp)
  40555f:	ff 
  405560:	48 8b 45 98          	mov    -0x68(%rbp),%rax
  405564:	48 83 c0 50          	add    $0x50,%rax
  405568:	48 89 85 d8 f2 ff ff 	mov    %rax,-0xd28(%rbp)
  40556f:	48 8b 85 d8 f2 ff ff 	mov    -0xd28(%rbp),%rax
  405576:	c5 fd 10 00          	vmovupd (%rax),%ymm0
  40557a:	c5 fd 29 85 b0 fe ff 	vmovapd %ymm0,-0x150(%rbp)
  405581:	ff 
  405582:	48 8b 45 98          	mov    -0x68(%rbp),%rax
  405586:	48 83 c0 58          	add    $0x58,%rax
  40558a:	48 89 85 d0 f2 ff ff 	mov    %rax,-0xd30(%rbp)
  405591:	48 8b 85 d0 f2 ff ff 	mov    -0xd30(%rbp),%rax
  405598:	c5 fd 10 00          	vmovupd (%rax),%ymm0
  40559c:	c5 fd 29 85 90 fe ff 	vmovapd %ymm0,-0x170(%rbp)
  4055a3:	ff 
  4055a4:	c5 fd 28 85 f0 fe ff 	vmovapd -0x110(%rbp),%ymm0
  4055ab:	ff 
  4055ac:	c5 fd 29 85 b0 f2 ff 	vmovapd %ymm0,-0xd50(%rbp)
  4055b3:	ff 
  4055b4:	c5 fd 28 85 30 ff ff 	vmovapd -0xd0(%rbp),%ymm0
  4055bb:	ff 
  4055bc:	c5 fd 29 85 90 f2 ff 	vmovapd %ymm0,-0xd70(%rbp)
  4055c3:	ff 
  4055c4:	c5 fd 28 85 30 fe ff 	vmovapd -0x1d0(%rbp),%ymm0
  4055cb:	ff 
  4055cc:	c5 fd 29 85 70 f2 ff 	vmovapd %ymm0,-0xd90(%rbp)
  4055d3:	ff 
  4055d4:	c5 fd 28 8d 90 f2 ff 	vmovapd -0xd70(%rbp),%ymm1
  4055db:	ff 
  4055dc:	c5 fd 28 85 70 f2 ff 	vmovapd -0xd90(%rbp),%ymm0
  4055e3:	ff 
  4055e4:	c4 e2 f5 b8 85 b0 f2 	vfmadd231pd -0xd50(%rbp),%ymm1,%ymm0
  4055eb:	ff ff 
  4055ed:	c5 fd 29 85 30 fe ff 	vmovapd %ymm0,-0x1d0(%rbp)
  4055f4:	ff 
  4055f5:	c5 fd 28 85 d0 fe ff 	vmovapd -0x130(%rbp),%ymm0
  4055fc:	ff 
  4055fd:	c5 fd 29 85 50 f2 ff 	vmovapd %ymm0,-0xdb0(%rbp)
  405604:	ff 
  405605:	c5 fd 28 85 10 ff ff 	vmovapd -0xf0(%rbp),%ymm0
  40560c:	ff 
  40560d:	c5 fd 29 85 30 f2 ff 	vmovapd %ymm0,-0xdd0(%rbp)
  405614:	ff 
  405615:	c5 fd 28 85 30 fe ff 	vmovapd -0x1d0(%rbp),%ymm0
  40561c:	ff 
  40561d:	c5 fd 29 85 10 f2 ff 	vmovapd %ymm0,-0xdf0(%rbp)
  405624:	ff 
  405625:	c5 fd 28 8d 30 f2 ff 	vmovapd -0xdd0(%rbp),%ymm1
  40562c:	ff 
  40562d:	c5 fd 28 85 10 f2 ff 	vmovapd -0xdf0(%rbp),%ymm0
  405634:	ff 
  405635:	c4 e2 f5 b8 85 50 f2 	vfmadd231pd -0xdb0(%rbp),%ymm1,%ymm0
  40563c:	ff ff 
  40563e:	c5 fd 29 85 30 fe ff 	vmovapd %ymm0,-0x1d0(%rbp)
  405645:	ff 
  405646:	c5 fd 28 85 b0 fe ff 	vmovapd -0x150(%rbp),%ymm0
  40564d:	ff 
  40564e:	c5 fd 29 85 f0 f1 ff 	vmovapd %ymm0,-0xe10(%rbp)
  405655:	ff 
  405656:	c5 fd 28 85 10 ff ff 	vmovapd -0xf0(%rbp),%ymm0
  40565d:	ff 
  40565e:	c5 fd 29 85 d0 f1 ff 	vmovapd %ymm0,-0xe30(%rbp)
  405665:	ff 
  405666:	c5 fd 28 85 30 fe ff 	vmovapd -0x1d0(%rbp),%ymm0
  40566d:	ff 
  40566e:	c5 fd 29 85 b0 f1 ff 	vmovapd %ymm0,-0xe50(%rbp)
  405675:	ff 
  405676:	c5 fd 28 8d d0 f1 ff 	vmovapd -0xe30(%rbp),%ymm1
  40567d:	ff 
  40567e:	c5 fd 28 85 b0 f1 ff 	vmovapd -0xe50(%rbp),%ymm0
  405685:	ff 
  405686:	c4 e2 f5 b8 85 f0 f1 	vfmadd231pd -0xe10(%rbp),%ymm1,%ymm0
  40568d:	ff ff 
  40568f:	c5 fd 29 85 30 fe ff 	vmovapd %ymm0,-0x1d0(%rbp)
  405696:	ff 
  405697:	c5 fd 28 85 90 fe ff 	vmovapd -0x170(%rbp),%ymm0
  40569e:	ff 
  40569f:	c5 fd 29 85 90 f1 ff 	vmovapd %ymm0,-0xe70(%rbp)
  4056a6:	ff 
  4056a7:	c5 fd 28 85 10 ff ff 	vmovapd -0xf0(%rbp),%ymm0
  4056ae:	ff 
  4056af:	c5 fd 29 85 70 f1 ff 	vmovapd %ymm0,-0xe90(%rbp)
  4056b6:	ff 
  4056b7:	c5 fd 28 85 30 fe ff 	vmovapd -0x1d0(%rbp),%ymm0
  4056be:	ff 
  4056bf:	c5 fd 29 85 50 f1 ff 	vmovapd %ymm0,-0xeb0(%rbp)
  4056c6:	ff 
  4056c7:	c5 fd 28 8d 70 f1 ff 	vmovapd -0xe90(%rbp),%ymm1
  4056ce:	ff 
  4056cf:	c5 fd 28 85 50 f1 ff 	vmovapd -0xeb0(%rbp),%ymm0
  4056d6:	ff 
  4056d7:	c4 e2 f5 b8 85 90 f1 	vfmadd231pd -0xe70(%rbp),%ymm1,%ymm0
  4056de:	ff ff 
  4056e0:	c5 fd 29 85 30 fe ff 	vmovapd %ymm0,-0x1d0(%rbp)
  4056e7:	ff 
  4056e8:	48 8b 45 98          	mov    -0x68(%rbp),%rax
  4056ec:	48 83 c0 60          	add    $0x60,%rax
  4056f0:	48 89 85 48 f1 ff ff 	mov    %rax,-0xeb8(%rbp)
  4056f7:	48 8b 85 48 f1 ff ff 	mov    -0xeb8(%rbp),%rax
  4056fe:	c5 fd 10 00          	vmovupd (%rax),%ymm0
  405702:	c5 fd 29 85 f0 fe ff 	vmovapd %ymm0,-0x110(%rbp)
  405709:	ff 
  40570a:	48 8b 45 98          	mov    -0x68(%rbp),%rax
  40570e:	48 83 c0 68          	add    $0x68,%rax
  405712:	48 89 85 40 f1 ff ff 	mov    %rax,-0xec0(%rbp)
  405719:	48 8b 85 40 f1 ff ff 	mov    -0xec0(%rbp),%rax
  405720:	c5 fd 10 00          	vmovupd (%rax),%ymm0
  405724:	c5 fd 29 85 d0 fe ff 	vmovapd %ymm0,-0x130(%rbp)
  40572b:	ff 
  40572c:	48 8b 45 98          	mov    -0x68(%rbp),%rax
  405730:	48 83 c0 70          	add    $0x70,%rax
  405734:	48 89 85 38 f1 ff ff 	mov    %rax,-0xec8(%rbp)
  40573b:	48 8b 85 38 f1 ff ff 	mov    -0xec8(%rbp),%rax
  405742:	c5 fd 10 00          	vmovupd (%rax),%ymm0
  405746:	c5 fd 29 85 b0 fe ff 	vmovapd %ymm0,-0x150(%rbp)
  40574d:	ff 
  40574e:	48 8b 45 98          	mov    -0x68(%rbp),%rax
  405752:	48 83 c0 78          	add    $0x78,%rax
  405756:	48 89 85 30 f1 ff ff 	mov    %rax,-0xed0(%rbp)
  40575d:	48 8b 85 30 f1 ff ff 	mov    -0xed0(%rbp),%rax
  405764:	c5 fd 10 00          	vmovupd (%rax),%ymm0
  405768:	c5 fd 29 85 90 fe ff 	vmovapd %ymm0,-0x170(%rbp)
  40576f:	ff 
  405770:	c5 fd 28 85 f0 fe ff 	vmovapd -0x110(%rbp),%ymm0
  405777:	ff 
  405778:	c5 fd 29 85 10 f1 ff 	vmovapd %ymm0,-0xef0(%rbp)
  40577f:	ff 
  405780:	c5 fd 28 85 30 ff ff 	vmovapd -0xd0(%rbp),%ymm0
  405787:	ff 
  405788:	c5 fd 29 85 f0 f0 ff 	vmovapd %ymm0,-0xf10(%rbp)
  40578f:	ff 
  405790:	c5 fd 28 85 10 fe ff 	vmovapd -0x1f0(%rbp),%ymm0
  405797:	ff 
  405798:	c5 fd 29 85 d0 f0 ff 	vmovapd %ymm0,-0xf30(%rbp)
  40579f:	ff 
  4057a0:	c5 fd 28 8d f0 f0 ff 	vmovapd -0xf10(%rbp),%ymm1
  4057a7:	ff 
  4057a8:	c5 fd 28 85 d0 f0 ff 	vmovapd -0xf30(%rbp),%ymm0
  4057af:	ff 
  4057b0:	c4 e2 f5 b8 85 10 f1 	vfmadd231pd -0xef0(%rbp),%ymm1,%ymm0
  4057b7:	ff ff 
  4057b9:	c5 fd 29 85 10 fe ff 	vmovapd %ymm0,-0x1f0(%rbp)
  4057c0:	ff 
  4057c1:	c5 fd 28 85 d0 fe ff 	vmovapd -0x130(%rbp),%ymm0
  4057c8:	ff 
  4057c9:	c5 fd 29 85 b0 f0 ff 	vmovapd %ymm0,-0xf50(%rbp)
  4057d0:	ff 
  4057d1:	c5 fd 28 85 10 ff ff 	vmovapd -0xf0(%rbp),%ymm0
  4057d8:	ff 
  4057d9:	c5 fd 29 85 90 f0 ff 	vmovapd %ymm0,-0xf70(%rbp)
  4057e0:	ff 
  4057e1:	c5 fd 28 85 10 fe ff 	vmovapd -0x1f0(%rbp),%ymm0
  4057e8:	ff 
  4057e9:	c5 fd 29 85 70 f0 ff 	vmovapd %ymm0,-0xf90(%rbp)
  4057f0:	ff 
  4057f1:	c5 fd 28 8d 90 f0 ff 	vmovapd -0xf70(%rbp),%ymm1
  4057f8:	ff 
  4057f9:	c5 fd 28 85 70 f0 ff 	vmovapd -0xf90(%rbp),%ymm0
  405800:	ff 
  405801:	c4 e2 f5 b8 85 b0 f0 	vfmadd231pd -0xf50(%rbp),%ymm1,%ymm0
  405808:	ff ff 
  40580a:	c5 fd 29 85 10 fe ff 	vmovapd %ymm0,-0x1f0(%rbp)
  405811:	ff 
  405812:	c5 fd 28 85 b0 fe ff 	vmovapd -0x150(%rbp),%ymm0
  405819:	ff 
  40581a:	c5 fd 29 85 50 f0 ff 	vmovapd %ymm0,-0xfb0(%rbp)
  405821:	ff 
  405822:	c5 fd 28 85 10 ff ff 	vmovapd -0xf0(%rbp),%ymm0
  405829:	ff 
  40582a:	c5 fd 29 85 30 f0 ff 	vmovapd %ymm0,-0xfd0(%rbp)
  405831:	ff 
  405832:	c5 fd 28 85 10 fe ff 	vmovapd -0x1f0(%rbp),%ymm0
  405839:	ff 
  40583a:	c5 fd 29 85 10 f0 ff 	vmovapd %ymm0,-0xff0(%rbp)
  405841:	ff 
  405842:	c5 fd 28 8d 30 f0 ff 	vmovapd -0xfd0(%rbp),%ymm1
  405849:	ff 
  40584a:	c5 fd 28 85 10 f0 ff 	vmovapd -0xff0(%rbp),%ymm0
  405851:	ff 
  405852:	c4 e2 f5 b8 85 50 f0 	vfmadd231pd -0xfb0(%rbp),%ymm1,%ymm0
  405859:	ff ff 
  40585b:	c5 fd 29 85 10 fe ff 	vmovapd %ymm0,-0x1f0(%rbp)
  405862:	ff 
  405863:	c5 fd 28 85 90 fe ff 	vmovapd -0x170(%rbp),%ymm0
  40586a:	ff 
  40586b:	c5 fd 29 85 f0 ef ff 	vmovapd %ymm0,-0x1010(%rbp)
  405872:	ff 
  405873:	c5 fd 28 85 10 ff ff 	vmovapd -0xf0(%rbp),%ymm0
  40587a:	ff 
  40587b:	c5 fd 29 85 d0 ef ff 	vmovapd %ymm0,-0x1030(%rbp)
  405882:	ff 
  405883:	c5 fd 28 85 10 fe ff 	vmovapd -0x1f0(%rbp),%ymm0
  40588a:	ff 
  40588b:	c5 fd 29 85 b0 ef ff 	vmovapd %ymm0,-0x1050(%rbp)
  405892:	ff 
  405893:	c5 fd 28 8d d0 ef ff 	vmovapd -0x1030(%rbp),%ymm1
  40589a:	ff 
  40589b:	c5 fd 28 85 b0 ef ff 	vmovapd -0x1050(%rbp),%ymm0
  4058a2:	ff 
  4058a3:	c4 e2 f5 b8 85 f0 ef 	vfmadd231pd -0x1010(%rbp),%ymm1,%ymm0
  4058aa:	ff ff 
  4058ac:	c5 fd 29 85 10 fe ff 	vmovapd %ymm0,-0x1f0(%rbp)
  4058b3:	ff 
  4058b4:	48 8b 85 68 ff ff ff 	mov    -0x98(%rbp),%rax
  4058bb:	48 89 85 a8 ef ff ff 	mov    %rax,-0x1058(%rbp)
  4058c2:	c5 fd 28 85 70 fe ff 	vmovapd -0x190(%rbp),%ymm0
  4058c9:	ff 
  4058ca:	c5 fd 29 85 70 ef ff 	vmovapd %ymm0,-0x1090(%rbp)
  4058d1:	ff 
  4058d2:	48 8b 85 a8 ef ff ff 	mov    -0x1058(%rbp),%rax
  4058d9:	c5 fd 28 85 70 ef ff 	vmovapd -0x1090(%rbp),%ymm0
  4058e0:	ff 
  4058e1:	c5 fd 11 00          	vmovupd %ymm0,(%rax)
  4058e5:	48 8b 85 68 ff ff ff 	mov    -0x98(%rbp),%rax
  4058ec:	48 83 c0 20          	add    $0x20,%rax
  4058f0:	48 89 85 68 ef ff ff 	mov    %rax,-0x1098(%rbp)
  4058f7:	c5 fd 28 85 50 fe ff 	vmovapd -0x1b0(%rbp),%ymm0
  4058fe:	ff 
  4058ff:	c5 fd 29 85 30 ef ff 	vmovapd %ymm0,-0x10d0(%rbp)
  405906:	ff 
  405907:	48 8b 85 68 ef ff ff 	mov    -0x1098(%rbp),%rax
  40590e:	c5 fd 28 85 30 ef ff 	vmovapd -0x10d0(%rbp),%ymm0
  405915:	ff 
  405916:	c5 fd 11 00          	vmovupd %ymm0,(%rax)
  40591a:	48 8b 85 68 ff ff ff 	mov    -0x98(%rbp),%rax
  405921:	48 83 c0 40          	add    $0x40,%rax
  405925:	48 89 85 28 ef ff ff 	mov    %rax,-0x10d8(%rbp)
  40592c:	c5 fd 28 85 30 fe ff 	vmovapd -0x1d0(%rbp),%ymm0
  405933:	ff 
  405934:	c5 fd 29 85 f0 ee ff 	vmovapd %ymm0,-0x1110(%rbp)
  40593b:	ff 
  40593c:	48 8b 85 28 ef ff ff 	mov    -0x10d8(%rbp),%rax
  405943:	c5 fd 28 85 f0 ee ff 	vmovapd -0x1110(%rbp),%ymm0
  40594a:	ff 
  40594b:	c5 fd 11 00          	vmovupd %ymm0,(%rax)
  40594f:	48 8b 85 68 ff ff ff 	mov    -0x98(%rbp),%rax
  405956:	48 83 c0 60          	add    $0x60,%rax
  40595a:	48 89 85 e8 ee ff ff 	mov    %rax,-0x1118(%rbp)
  405961:	c5 fd 28 85 10 fe ff 	vmovapd -0x1f0(%rbp),%ymm0
  405968:	ff 
  405969:	c5 fd 29 85 b0 ee ff 	vmovapd %ymm0,-0x1150(%rbp)
  405970:	ff 
  405971:	48 8b 85 e8 ee ff ff 	mov    -0x1118(%rbp),%rax
  405978:	c5 fd 28 85 b0 ee ff 	vmovapd -0x1150(%rbp),%ymm0
  40597f:	ff 
  405980:	c5 fd 11 00          	vmovupd %ymm0,(%rax)
  405984:	c5 f9 57 c0          	vxorpd %xmm0,%xmm0,%xmm0
  405988:	c5 fd 29 85 f0 fe ff 	vmovapd %ymm0,-0x110(%rbp)
  40598f:	ff 
  405990:	c5 f9 57 c0          	vxorpd %xmm0,%xmm0,%xmm0
  405994:	c5 fd 29 85 d0 fe ff 	vmovapd %ymm0,-0x130(%rbp)
  40599b:	ff 
  40599c:	c5 f9 57 c0          	vxorpd %xmm0,%xmm0,%xmm0
  4059a0:	c5 fd 29 85 b0 fe ff 	vmovapd %ymm0,-0x150(%rbp)
  4059a7:	ff 
  4059a8:	c5 f9 57 c0          	vxorpd %xmm0,%xmm0,%xmm0
  4059ac:	c5 fd 29 85 90 fe ff 	vmovapd %ymm0,-0x170(%rbp)
  4059b3:	ff 
  4059b4:	c5 f9 57 c0          	vxorpd %xmm0,%xmm0,%xmm0
  4059b8:	c5 fd 29 85 70 fe ff 	vmovapd %ymm0,-0x190(%rbp)
  4059bf:	ff 
  4059c0:	c5 f9 57 c0          	vxorpd %xmm0,%xmm0,%xmm0
  4059c4:	c5 fd 29 85 50 fe ff 	vmovapd %ymm0,-0x1b0(%rbp)
  4059cb:	ff 
  4059cc:	c5 f9 57 c0          	vxorpd %xmm0,%xmm0,%xmm0
  4059d0:	c5 fd 29 85 30 fe ff 	vmovapd %ymm0,-0x1d0(%rbp)
  4059d7:	ff 
  4059d8:	c5 f9 57 c0          	vxorpd %xmm0,%xmm0,%xmm0
  4059dc:	c5 fd 29 85 10 fe ff 	vmovapd %ymm0,-0x1f0(%rbp)
  4059e3:	ff 
  4059e4:	c5 f9 57 c0          	vxorpd %xmm0,%xmm0,%xmm0
  4059e8:	c5 fd 29 85 f0 fd ff 	vmovapd %ymm0,-0x210(%rbp)
  4059ef:	ff 
  4059f0:	48 8b 45 88          	mov    -0x78(%rbp),%rax
  4059f4:	48 89 85 a8 ee ff ff 	mov    %rax,-0x1158(%rbp)
  4059fb:	48 8b 85 a8 ee ff ff 	mov    -0x1158(%rbp),%rax
  405a02:	c5 fd 10 00          	vmovupd (%rax),%ymm0
  405a06:	c5 fd 29 85 f0 fe ff 	vmovapd %ymm0,-0x110(%rbp)
  405a0d:	ff 
  405a0e:	48 8b 45 88          	mov    -0x78(%rbp),%rax
  405a12:	48 83 c0 08          	add    $0x8,%rax
  405a16:	48 89 85 a0 ee ff ff 	mov    %rax,-0x1160(%rbp)
  405a1d:	48 8b 85 a0 ee ff ff 	mov    -0x1160(%rbp),%rax
  405a24:	c5 fd 10 00          	vmovupd (%rax),%ymm0
  405a28:	c5 fd 29 85 d0 fe ff 	vmovapd %ymm0,-0x130(%rbp)
  405a2f:	ff 
  405a30:	48 8b 45 88          	mov    -0x78(%rbp),%rax
  405a34:	48 83 c0 10          	add    $0x10,%rax
  405a38:	48 89 85 98 ee ff ff 	mov    %rax,-0x1168(%rbp)
  405a3f:	48 8b 85 98 ee ff ff 	mov    -0x1168(%rbp),%rax
  405a46:	c5 fd 10 00          	vmovupd (%rax),%ymm0
  405a4a:	c5 fd 29 85 b0 fe ff 	vmovapd %ymm0,-0x150(%rbp)
  405a51:	ff 
  405a52:	48 8b 45 88          	mov    -0x78(%rbp),%rax
  405a56:	48 83 c0 18          	add    $0x18,%rax
  405a5a:	48 89 85 90 ee ff ff 	mov    %rax,-0x1170(%rbp)
  405a61:	48 8b 85 90 ee ff ff 	mov    -0x1170(%rbp),%rax
  405a68:	c5 fd 10 00          	vmovupd (%rax),%ymm0
  405a6c:	c5 fd 29 85 90 fe ff 	vmovapd %ymm0,-0x170(%rbp)
  405a73:	ff 
  405a74:	c5 fd 28 85 f0 fe ff 	vmovapd -0x110(%rbp),%ymm0
  405a7b:	ff 
  405a7c:	c5 fd 29 85 70 ee ff 	vmovapd %ymm0,-0x1190(%rbp)
  405a83:	ff 
  405a84:	c5 fd 28 85 30 ff ff 	vmovapd -0xd0(%rbp),%ymm0
  405a8b:	ff 
  405a8c:	c5 fd 29 85 50 ee ff 	vmovapd %ymm0,-0x11b0(%rbp)
  405a93:	ff 
